
LAB2_ADC.elf:     file format elf32-avr

Sections:
Idx Name          Size      VMA       LMA       File off  Algn
  0 .data         0000006a  00800100  000009da  00000a6e  2**0
                  CONTENTS, ALLOC, LOAD, DATA
  1 .text         000009da  00000000  00000000  00000094  2**1
                  CONTENTS, ALLOC, LOAD, READONLY, CODE
  2 .bss          0000004d  0080016a  0080016a  00000ad8  2**0
                  ALLOC
  3 .comment      00000030  00000000  00000000  00000ad8  2**0
                  CONTENTS, READONLY
  4 .note.gnu.avr.deviceinfo 00000040  00000000  00000000  00000b08  2**2
                  CONTENTS, READONLY
  5 .debug_aranges 000001f8  00000000  00000000  00000b48  2**0
                  CONTENTS, READONLY, DEBUGGING
  6 .debug_info   0000256e  00000000  00000000  00000d40  2**0
                  CONTENTS, READONLY, DEBUGGING
  7 .debug_abbrev 00000fe5  00000000  00000000  000032ae  2**0
                  CONTENTS, READONLY, DEBUGGING
  8 .debug_line   0000102b  00000000  00000000  00004293  2**0
                  CONTENTS, READONLY, DEBUGGING
  9 .debug_frame  000003ac  00000000  00000000  000052c0  2**2
                  CONTENTS, READONLY, DEBUGGING
 10 .debug_str    00000fe3  00000000  00000000  0000566c  2**0
                  CONTENTS, READONLY, DEBUGGING
 11 .debug_loc    000009af  00000000  00000000  0000664f  2**0
                  CONTENTS, READONLY, DEBUGGING
 12 .debug_ranges 00000168  00000000  00000000  00006ffe  2**0
                  CONTENTS, READONLY, DEBUGGING

Disassembly of section .text:

00000000 <__vectors>:
   0:	0c 94 34 00 	jmp	0x68	; 0x68 <__ctors_end>
   4:	0c 94 51 00 	jmp	0xa2	; 0xa2 <__bad_interrupt>
   8:	0c 94 51 00 	jmp	0xa2	; 0xa2 <__bad_interrupt>
   c:	0c 94 51 00 	jmp	0xa2	; 0xa2 <__bad_interrupt>
  10:	0c 94 51 00 	jmp	0xa2	; 0xa2 <__bad_interrupt>
  14:	0c 94 51 00 	jmp	0xa2	; 0xa2 <__bad_interrupt>
  18:	0c 94 51 00 	jmp	0xa2	; 0xa2 <__bad_interrupt>
  1c:	0c 94 51 00 	jmp	0xa2	; 0xa2 <__bad_interrupt>
  20:	0c 94 51 00 	jmp	0xa2	; 0xa2 <__bad_interrupt>
  24:	0c 94 51 00 	jmp	0xa2	; 0xa2 <__bad_interrupt>
  28:	0c 94 51 00 	jmp	0xa2	; 0xa2 <__bad_interrupt>
  2c:	0c 94 51 00 	jmp	0xa2	; 0xa2 <__bad_interrupt>
  30:	0c 94 51 00 	jmp	0xa2	; 0xa2 <__bad_interrupt>
  34:	0c 94 51 00 	jmp	0xa2	; 0xa2 <__bad_interrupt>
  38:	0c 94 51 00 	jmp	0xa2	; 0xa2 <__bad_interrupt>
  3c:	0c 94 51 00 	jmp	0xa2	; 0xa2 <__bad_interrupt>
  40:	0c 94 51 00 	jmp	0xa2	; 0xa2 <__bad_interrupt>
  44:	0c 94 51 00 	jmp	0xa2	; 0xa2 <__bad_interrupt>
  48:	0c 94 51 00 	jmp	0xa2	; 0xa2 <__bad_interrupt>
  4c:	0c 94 51 00 	jmp	0xa2	; 0xa2 <__bad_interrupt>
  50:	0c 94 51 00 	jmp	0xa2	; 0xa2 <__bad_interrupt>
  54:	0c 94 51 00 	jmp	0xa2	; 0xa2 <__bad_interrupt>
  58:	0c 94 51 00 	jmp	0xa2	; 0xa2 <__bad_interrupt>
  5c:	0c 94 51 00 	jmp	0xa2	; 0xa2 <__bad_interrupt>
  60:	0c 94 51 00 	jmp	0xa2	; 0xa2 <__bad_interrupt>
  64:	0c 94 51 00 	jmp	0xa2	; 0xa2 <__bad_interrupt>

00000068 <__ctors_end>:
  68:	11 24       	eor	r1, r1
  6a:	1f be       	out	0x3f, r1	; 63
  6c:	cf ef       	ldi	r28, 0xFF	; 255
  6e:	d8 e0       	ldi	r29, 0x08	; 8
  70:	de bf       	out	0x3e, r29	; 62
  72:	cd bf       	out	0x3d, r28	; 61

00000074 <__do_copy_data>:
  74:	11 e0       	ldi	r17, 0x01	; 1
  76:	a0 e0       	ldi	r26, 0x00	; 0
  78:	b1 e0       	ldi	r27, 0x01	; 1
  7a:	ea ed       	ldi	r30, 0xDA	; 218
  7c:	f9 e0       	ldi	r31, 0x09	; 9
  7e:	02 c0       	rjmp	.+4      	; 0x84 <__do_copy_data+0x10>
  80:	05 90       	lpm	r0, Z+
  82:	0d 92       	st	X+, r0
  84:	aa 36       	cpi	r26, 0x6A	; 106
  86:	b1 07       	cpc	r27, r17
  88:	d9 f7       	brne	.-10     	; 0x80 <__do_copy_data+0xc>

0000008a <__do_clear_bss>:
  8a:	21 e0       	ldi	r18, 0x01	; 1
  8c:	aa e6       	ldi	r26, 0x6A	; 106
  8e:	b1 e0       	ldi	r27, 0x01	; 1
  90:	01 c0       	rjmp	.+2      	; 0x94 <.do_clear_bss_start>

00000092 <.do_clear_bss_loop>:
  92:	1d 92       	st	X+, r1

00000094 <.do_clear_bss_start>:
  94:	a7 3b       	cpi	r26, 0xB7	; 183
  96:	b2 07       	cpc	r27, r18
  98:	e1 f7       	brne	.-8      	; 0x92 <.do_clear_bss_loop>
  9a:	0e 94 83 00 	call	0x106	; 0x106 <main>
  9e:	0c 94 eb 04 	jmp	0x9d6	; 0x9d6 <_exit>

000000a2 <__bad_interrupt>:
  a2:	0c 94 00 00 	jmp	0	; 0x0 <__vectors>

000000a6 <Appl__Initialize>:
//=====================================================================================================================


void Appl__Initialize(void)
{
	User_Action = EVENTS_NO_EVENT;
  a6:	8f ef       	ldi	r24, 0xFF	; 255
  a8:	80 93 6a 01 	sts	0x016A, r24	; 0x80016a <__data_end>
  ac:	08 95       	ret

000000ae <Appl__Handler>:

void Appl__Handler(void)
{//unsigned short int ad_value;
	
#if (EXP_OVEN == ENABLED)	
	    User_Action = Display__GetEvent();
  ae:	0e 94 6a 04 	call	0x8d4	; 0x8d4 <Display__GetEvent>
  b2:	80 93 6a 01 	sts	0x016A, r24	; 0x80016a <__data_end>
		if (User_Action != EVENTS_NO_EVENT)
  b6:	8f 3f       	cpi	r24, 0xFF	; 255
  b8:	19 f1       	breq	.+70     	; 0x100 <Appl__Handler+0x52>
		    {
			switch(User_Action)
  ba:	81 30       	cpi	r24, 0x01	; 1
  bc:	69 f0       	breq	.+26     	; 0xd8 <Appl__Handler+0x2a>
  be:	28 f0       	brcs	.+10     	; 0xca <Appl__Handler+0x1c>
  c0:	82 30       	cpi	r24, 0x02	; 2
  c2:	89 f0       	breq	.+34     	; 0xe6 <Appl__Handler+0x38>
  c4:	83 30       	cpi	r24, 0x03	; 3
  c6:	b1 f0       	breq	.+44     	; 0xf4 <Appl__Handler+0x46>
  c8:	1b c0       	rjmp	.+54     	; 0x100 <Appl__Handler+0x52>
			    {
			    case KEY_OFF_EVENT:
				   Display__SetState(OVEN_OFF);
  ca:	80 e0       	ldi	r24, 0x00	; 0
  cc:	0e 94 11 04 	call	0x822	; 0x822 <Display__SetState>
				   OvenTempControl__SetLevel(TEMP_LEVEL_OVEN_OFF);
  d0:	83 e0       	ldi	r24, 0x03	; 3
  d2:	0e 94 06 01 	call	0x20c	; 0x20c <OvenTempControl__SetLevel>
				   break;
  d6:	14 c0       	rjmp	.+40     	; 0x100 <Appl__Handler+0x52>
				
			    case KEY_MIN_EVENT:
			          Display__SetState(OVEN_MIN);
  d8:	81 e0       	ldi	r24, 0x01	; 1
  da:	0e 94 11 04 	call	0x822	; 0x822 <Display__SetState>
					  OvenTempControl__SetLevel(TEMP_LEVEL_MIN);
  de:	80 e0       	ldi	r24, 0x00	; 0
  e0:	0e 94 06 01 	call	0x20c	; 0x20c <OvenTempControl__SetLevel>
				      break;
  e4:	0d c0       	rjmp	.+26     	; 0x100 <Appl__Handler+0x52>
							
				 case KEY_MED_EVENT:
					  Display__SetState(OVEN_MED);
  e6:	82 e0       	ldi	r24, 0x02	; 2
  e8:	0e 94 11 04 	call	0x822	; 0x822 <Display__SetState>
					  OvenTempControl__SetLevel(TEMP_LEVEL_MED);
  ec:	81 e0       	ldi	r24, 0x01	; 1
  ee:	0e 94 06 01 	call	0x20c	; 0x20c <OvenTempControl__SetLevel>
					  break;
  f2:	06 c0       	rjmp	.+12     	; 0x100 <Appl__Handler+0x52>
				
			     case KEY_MAX_EVENT:
				      Display__SetState(OVEN_MAX);
  f4:	83 e0       	ldi	r24, 0x03	; 3
  f6:	0e 94 11 04 	call	0x822	; 0x822 <Display__SetState>
					  OvenTempControl__SetLevel(TEMP_LEVEL_MAX);
  fa:	82 e0       	ldi	r24, 0x02	; 2
  fc:	0e 94 06 01 	call	0x20c	; 0x20c <OvenTempControl__SetLevel>
			     default:
				    break;

			}
		}
Display__Handler();
 100:	0e 94 ce 04 	call	0x99c	; 0x99c <Display__Handler>
 104:	08 95       	ret

00000106 <main>:
{
	//#if (WATCHDOG_ENABLE == DISABLED)
	//DISABLE_WATCHDOG();
	//#endif //WATCHDOG_ENABLE
	//EnableInterrupts;
	Slot = SLOT_1;
 106:	10 92 6e 01 	sts	0x016E, r1	; 0x80016e <Slot>
	//RTCSC_RTCLKS = 0x00;
	//RTCSC_RTCPS = SLOT_TIME;
	//#endif //USE_FIXED_TIME_SLOT
	
	// Functions Initialization
	INITIALIZE_TASKS();
 10a:	0e 94 66 02 	call	0x4cc	; 0x4cc <Hal__Initialize>
 10e:	0e 94 0b 04 	call	0x816	; 0x816 <Display__Initialize>
 112:	0e 94 53 00 	call	0xa6	; 0xa6 <Appl__Initialize>
 116:	0e 94 09 01 	call	0x212	; 0x212 <ADC__Initialize>
 11a:	0e 94 d5 04 	call	0x9aa	; 0x9aa <TempSensor__Initialize>
 11e:	0e 94 bf 00 	call	0x17e	; 0x17e <OvenTempControl__Initialize>
			default:
			Slot = SLOT_1;
			break;

		}
		Slot++;
 122:	c1 e0       	ldi	r28, 0x01	; 1
	{
		//#if (WATCHDOG_ENABLE == ENABLED)
		//RESET_WATCHDOG();	/* feeds the watch dog */
		//#endif //WATCHDOG_ENABLE
		
		ALL_SLOTS_TASKS();
 124:	0e 94 5e 03 	call	0x6bc	; 0x6bc <Hal__FastHandler>
 128:	0e 94 d7 03 	call	0x7ae	; 0x7ae <Hal__BackgroundHandler>
		switch(Slot)
 12c:	80 91 6e 01 	lds	r24, 0x016E	; 0x80016e <Slot>
 130:	82 30       	cpi	r24, 0x02	; 2
 132:	81 f0       	breq	.+32     	; 0x154 <main+0x4e>
 134:	28 f4       	brcc	.+10     	; 0x140 <main+0x3a>
 136:	88 23       	and	r24, r24
 138:	c1 f0       	breq	.+48     	; 0x16a <main+0x64>
 13a:	81 30       	cpi	r24, 0x01	; 1
 13c:	31 f0       	breq	.+12     	; 0x14a <main+0x44>
 13e:	12 c0       	rjmp	.+36     	; 0x164 <main+0x5e>
 140:	83 30       	cpi	r24, 0x03	; 3
 142:	69 f0       	breq	.+26     	; 0x15e <main+0x58>
 144:	84 30       	cpi	r24, 0x04	; 4
 146:	89 f0       	breq	.+34     	; 0x16a <main+0x64>
 148:	0d c0       	rjmp	.+26     	; 0x164 <main+0x5e>
			case SLOT_1:
			SLOT_1_TASKS();
			break;

			case SLOT_2:
			SLOT_2_TASKS();
 14a:	0e 94 57 00 	call	0xae	; 0xae <Appl__Handler>
 14e:	0e 94 ce 04 	call	0x99c	; 0x99c <Display__Handler>
			break;
 152:	0b c0       	rjmp	.+22     	; 0x16a <main+0x64>

			case SLOT_3:
			SLOT_3_TASKS();
 154:	0e 94 32 01 	call	0x264	; 0x264 <ADC__Handler>
 158:	0e 94 dc 04 	call	0x9b8	; 0x9b8 <TempSensor__ConversionHandler>
			break;
 15c:	06 c0       	rjmp	.+12     	; 0x16a <main+0x64>

			case SLOT_4:
			SLOT_4_TASKS();
 15e:	0e 94 c5 00 	call	0x18a	; 0x18a <OvenTempControl__Handler>
			break;
 162:	03 c0       	rjmp	.+6      	; 0x16a <main+0x64>
			default:
			Slot = SLOT_1;
			break;

		}
		Slot++;
 164:	c0 93 6e 01 	sts	0x016E, r28	; 0x80016e <Slot>
 168:	dd cf       	rjmp	.-70     	; 0x124 <main+0x1e>
 16a:	80 91 6e 01 	lds	r24, 0x016E	; 0x80016e <Slot>
 16e:	8f 5f       	subi	r24, 0xFF	; 255
 170:	80 93 6e 01 	sts	0x016E, r24	; 0x80016e <Slot>
		if(Slot >= NUM_OF_MAIN_SLOTS)
 174:	85 30       	cpi	r24, 0x05	; 5
 176:	b0 f2       	brcs	.-84     	; 0x124 <main+0x1e>
		{
			Slot = SLOT_1;
 178:	10 92 6e 01 	sts	0x016E, r1	; 0x80016e <Slot>
 17c:	d3 cf       	rjmp	.-90     	; 0x124 <main+0x1e>

0000017e <OvenTempControl__Initialize>:


//---------------------------------------------------------------------------------------------------------------------
void OvenTempControl__Initialize(void)
{
	Oven_TempControl_State = OVEN_INSIDE_RANGE;   
 17e:	10 92 70 01 	sts	0x0170, r1	; 0x800170 <Oven_TempControl_State>
	Current_Level = TEMP_LEVEL_OVEN_OFF;
 182:	83 e0       	ldi	r24, 0x03	; 3
 184:	80 93 6f 01 	sts	0x016F, r24	; 0x80016f <Current_Level>
 188:	08 95       	ret

0000018a <OvenTempControl__Handler>:
// ************************************************************



void OvenTempControl__Handler(void)
{
 18a:	ef 92       	push	r14
 18c:	ff 92       	push	r15
 18e:	0f 93       	push	r16
 190:	1f 93       	push	r17
 192:	cf 93       	push	r28
 194:	df 93       	push	r29
	unsigned short int temp_on;
	unsigned short int temp_off;
	unsigned short int current_temp;

	temp_on = TEMP_CONTROL_PARAMETERS[Current_Level].Temp_On;
 196:	e0 91 6f 01 	lds	r30, 0x016F	; 0x80016f <Current_Level>
 19a:	f0 e0       	ldi	r31, 0x00	; 0
 19c:	ee 0f       	add	r30, r30
 19e:	ff 1f       	adc	r31, r31
 1a0:	ee 0f       	add	r30, r30
 1a2:	ff 1f       	adc	r31, r31
 1a4:	ea 5d       	subi	r30, 0xDA	; 218
 1a6:	fe 4f       	sbci	r31, 0xFE	; 254
 1a8:	e0 80       	ld	r14, Z
 1aa:	f1 80       	ldd	r15, Z+1	; 0x01
	temp_off = TEMP_CONTROL_PARAMETERS[Current_Level].Temp_Off;
 1ac:	02 81       	ldd	r16, Z+2	; 0x02
 1ae:	13 81       	ldd	r17, Z+3	; 0x03
	current_temp = TempSensor__GetCelsius(OVEN_RELATED_SENSOR);
 1b0:	81 e0       	ldi	r24, 0x01	; 1
 1b2:	0e 94 dd 04 	call	0x9ba	; 0x9ba <TempSensor__GetCelsius>
 1b6:	ec 01       	movw	r28, r24

	if(Current_Level == TEMP_LEVEL_OVEN_OFF)
 1b8:	80 91 6f 01 	lds	r24, 0x016F	; 0x80016f <Current_Level>
 1bc:	83 30       	cpi	r24, 0x03	; 3
 1be:	21 f4       	brne	.+8      	; 0x1c8 <OvenTempControl__Handler+0x3e>
	{
		TURN_HEATER_OFF();
 1c0:	60 e0       	ldi	r22, 0x00	; 0
 1c2:	0e 94 49 02 	call	0x492	; 0x492 <Hal__SetLed>
 1c6:	1b c0       	rjmp	.+54     	; 0x1fe <OvenTempControl__Handler+0x74>
	}
	else
	{
		switch(Oven_TempControl_State)
 1c8:	80 91 70 01 	lds	r24, 0x0170	; 0x800170 <Oven_TempControl_State>
 1cc:	88 23       	and	r24, r24
 1ce:	19 f0       	breq	.+6      	; 0x1d6 <OvenTempControl__Handler+0x4c>
 1d0:	81 30       	cpi	r24, 0x01	; 1
 1d2:	61 f0       	breq	.+24     	; 0x1ec <OvenTempControl__Handler+0x62>
 1d4:	14 c0       	rjmp	.+40     	; 0x1fe <OvenTempControl__Handler+0x74>
		{
		case OVEN_INSIDE_RANGE:
			TURN_HEATER_OFF();
 1d6:	60 e0       	ldi	r22, 0x00	; 0
 1d8:	83 e0       	ldi	r24, 0x03	; 3
 1da:	0e 94 49 02 	call	0x492	; 0x492 <Hal__SetLed>
			if(current_temp <= temp_on)
 1de:	ec 16       	cp	r14, r28
 1e0:	fd 06       	cpc	r15, r29
 1e2:	68 f0       	brcs	.+26     	; 0x1fe <OvenTempControl__Handler+0x74>
			{
				Oven_TempControl_State = OVEN_HEATING;
 1e4:	81 e0       	ldi	r24, 0x01	; 1
 1e6:	80 93 70 01 	sts	0x0170, r24	; 0x800170 <Oven_TempControl_State>
 1ea:	09 c0       	rjmp	.+18     	; 0x1fe <OvenTempControl__Handler+0x74>
			}
			break;

		case OVEN_HEATING:
			TURN_HEATER_ON();
 1ec:	61 e0       	ldi	r22, 0x01	; 1
 1ee:	83 e0       	ldi	r24, 0x03	; 3
 1f0:	0e 94 49 02 	call	0x492	; 0x492 <Hal__SetLed>
			if(current_temp >= temp_off)
 1f4:	c0 17       	cp	r28, r16
 1f6:	d1 07       	cpc	r29, r17
 1f8:	10 f0       	brcs	.+4      	; 0x1fe <OvenTempControl__Handler+0x74>
			{
				Oven_TempControl_State = OVEN_INSIDE_RANGE;
 1fa:	10 92 70 01 	sts	0x0170, r1	; 0x800170 <Oven_TempControl_State>
			}

			break;
		}
	}
}
 1fe:	df 91       	pop	r29
 200:	cf 91       	pop	r28
 202:	1f 91       	pop	r17
 204:	0f 91       	pop	r16
 206:	ff 90       	pop	r15
 208:	ef 90       	pop	r14
 20a:	08 95       	ret

0000020c <OvenTempControl__SetLevel>:

// ****************************************************

void OvenTempControl__SetLevel(OVEN_TEMP_CONTROL_LEVELS_TYPE level)
{
	Current_Level = level;
 20c:	80 93 6f 01 	sts	0x016F, r24	; 0x80016f <Current_Level>
 210:	08 95       	ret

00000212 <ADC__Initialize>:
// Esta função configura somente os pinos de digital para analogico e inicializa o ADC_Buffer[]

// ********************************** 
 
void ADC__Initialize(void)
{
 212:	cf 93       	push	r28
 214:	df 93       	push	r29
	volatile ADC_REG_TYPE *adc_pt;   // tipo definido no micro.h
	adc_pt = ADC_REGISTERS;          // adc_pt aponta par ao inicio dos regs do ADC ($000078)
	
	

	Adc_Step = ADC_STEP_INIT;   // inicializa o Adc_Step em INIT
 216:	10 92 7d 01 	sts	0x017D, r1	; 0x80017d <Adc_Step>
	Sampling_Time = 0;
 21a:	10 92 7e 01 	sts	0x017E, r1	; 0x80017e <Sampling_Time>
	adc_pt->DIDR0_REG.byte =0x00;  //  nenhuma entrada analógica habilitada
 21e:	10 92 7e 00 	sts	0x007E, r1	; 0x80007e <__TEXT_REGION_LENGTH__+0x7e007e>
 222:	c1 e7       	ldi	r28, 0x71	; 113
 224:	d1 e0       	ldi	r29, 0x01	; 1
 226:	6c e3       	ldi	r22, 0x3C	; 60
 228:	71 e0       	ldi	r23, 0x01	; 1
 22a:	e6 e3       	ldi	r30, 0x36	; 54
 22c:	f1 e0       	ldi	r31, 0x01	; 1
	
	for(channel = 0; channel <NUM_OF_AD_CHANNELS ; channel++)
 22e:	80 e0       	ldi	r24, 0x00	; 0
		if(Adc_Enable_Table[channel] == ENABLED)      // se o canal é habilitado, então deixa analógico
		{
			// Configures relative input as analog input
			if(channel < NUM_OF_AD_CHANNELS) 
			   {							// CH0 to CH5 are configured in DIDR0
			   adc_pt->DIDR0_REG.byte |= ADC_BIT_SET_MASK[channel];	// configura como analógico conforme o canal enabled
 230:	28 e7       	ldi	r18, 0x78	; 120
 232:	30 e0       	ldi	r19, 0x00	; 0
	Sampling_Time = 0;
	adc_pt->DIDR0_REG.byte =0x00;  //  nenhuma entrada analógica habilitada
	
	for(channel = 0; channel <NUM_OF_AD_CHANNELS ; channel++)
	 {
		ADC_Buffer[channel] = 0;
 234:	19 92       	st	Y+, r1
 236:	19 92       	st	Y+, r1

		if(Adc_Enable_Table[channel] == ENABLED)      // se o canal é habilitado, então deixa analógico
 238:	db 01       	movw	r26, r22
 23a:	9d 91       	ld	r25, X+
 23c:	bd 01       	movw	r22, r26
 23e:	91 30       	cpi	r25, 0x01	; 1
 240:	51 f4       	brne	.+20     	; 0x256 <ADC__Initialize+0x44>
		{
			// Configures relative input as analog input
			if(channel < NUM_OF_AD_CHANNELS) 
 242:	86 30       	cpi	r24, 0x06	; 6
 244:	40 f4       	brcc	.+16     	; 0x256 <ADC__Initialize+0x44>
			   {							// CH0 to CH5 are configured in DIDR0
			   adc_pt->DIDR0_REG.byte |= ADC_BIT_SET_MASK[channel];	// configura como analógico conforme o canal enabled
 246:	d9 01       	movw	r26, r18
 248:	16 96       	adiw	r26, 0x06	; 6
 24a:	4c 91       	ld	r20, X
 24c:	16 97       	sbiw	r26, 0x06	; 6
 24e:	90 81       	ld	r25, Z
 250:	94 2b       	or	r25, r20
 252:	16 96       	adiw	r26, 0x06	; 6
 254:	9c 93       	st	X, r25

	Adc_Step = ADC_STEP_INIT;   // inicializa o Adc_Step em INIT
	Sampling_Time = 0;
	adc_pt->DIDR0_REG.byte =0x00;  //  nenhuma entrada analógica habilitada
	
	for(channel = 0; channel <NUM_OF_AD_CHANNELS ; channel++)
 256:	8f 5f       	subi	r24, 0xFF	; 255
 258:	31 96       	adiw	r30, 0x01	; 1
 25a:	86 30       	cpi	r24, 0x06	; 6
 25c:	59 f7       	brne	.-42     	; 0x234 <ADC__Initialize+0x22>
			   {							// CH0 to CH5 are configured in DIDR0
			   adc_pt->DIDR0_REG.byte |= ADC_BIT_SET_MASK[channel];	// configura como analógico conforme o canal enabled
			   }
		}
	 }  
}
 25e:	df 91       	pop	r29
 260:	cf 91       	pop	r28
 262:	08 95       	ret

00000264 <ADC__Handler>:
	unsigned short int value, value_high;
	volatile ADC_REG_TYPE *adc_pt;
	adc_pt = ADC_REGISTERS;
	

	switch(Adc_Step)
 264:	80 91 7d 01 	lds	r24, 0x017D	; 0x80017d <Adc_Step>
 268:	82 30       	cpi	r24, 0x02	; 2
 26a:	81 f1       	breq	.+96     	; 0x2cc <ADC__Handler+0x68>
 26c:	28 f4       	brcc	.+10     	; 0x278 <ADC__Handler+0x14>
 26e:	88 23       	and	r24, r24
 270:	41 f0       	breq	.+16     	; 0x282 <ADC__Handler+0x1e>
 272:	81 30       	cpi	r24, 0x01	; 1
 274:	f9 f0       	breq	.+62     	; 0x2b4 <ADC__Handler+0x50>
 276:	5f c0       	rjmp	.+190    	; 0x336 <ADC__Handler+0xd2>
 278:	83 30       	cpi	r24, 0x03	; 3
 27a:	c1 f1       	breq	.+112    	; 0x2ec <ADC__Handler+0x88>
 27c:	84 30       	cpi	r24, 0x04	; 4
 27e:	f1 f1       	breq	.+124    	; 0x2fc <ADC__Handler+0x98>
 280:	5a c0       	rjmp	.+180    	; 0x336 <ADC__Handler+0xd2>
	{
	case ADC_STEP_INIT:
		Adc_Channel++;											// Selects next channel
 282:	80 91 7f 01 	lds	r24, 0x017F	; 0x80017f <Adc_Channel>
 286:	8f 5f       	subi	r24, 0xFF	; 255
		if(Adc_Channel >= NUM_OF_AD_CHANNELS)
 288:	86 30       	cpi	r24, 0x06	; 6
 28a:	18 f4       	brcc	.+6      	; 0x292 <ADC__Handler+0x2e>
	

	switch(Adc_Step)
	{
	case ADC_STEP_INIT:
		Adc_Channel++;											// Selects next channel
 28c:	80 93 7f 01 	sts	0x017F, r24	; 0x80017f <Adc_Channel>
 290:	02 c0       	rjmp	.+4      	; 0x296 <ADC__Handler+0x32>
		if(Adc_Channel >= NUM_OF_AD_CHANNELS)
		{
			Adc_Channel = AD_CH0;  // varre constantemente todas os canais
 292:	10 92 7f 01 	sts	0x017F, r1	; 0x80017f <Adc_Channel>
		}

		if(Adc_Enable_Table[Adc_Channel] == ENABLED)			// Checks if current channel is enabled
 296:	e0 91 7f 01 	lds	r30, 0x017F	; 0x80017f <Adc_Channel>
 29a:	f0 e0       	ldi	r31, 0x00	; 0
 29c:	e4 5c       	subi	r30, 0xC4	; 196
 29e:	fe 4f       	sbci	r31, 0xFE	; 254
 2a0:	80 81       	ld	r24, Z
 2a2:	81 30       	cpi	r24, 0x01	; 1
 2a4:	09 f0       	breq	.+2      	; 0x2a8 <ADC__Handler+0x44>
 2a6:	49 c0       	rjmp	.+146    	; 0x33a <ADC__Handler+0xd6>
		{
			Adc_Step = ADC_STEP_SAMPLING;
 2a8:	80 93 7d 01 	sts	0x017D, r24	; 0x80017d <Adc_Step>
			Sampling_Time = ADC_SAMPLING_TIME;
 2ac:	82 e3       	ldi	r24, 0x32	; 50
 2ae:	80 93 7e 01 	sts	0x017E, r24	; 0x80017e <Sampling_Time>
 2b2:	08 95       	ret
		}
		break;

	case ADC_STEP_SAMPLING:
		if(Sampling_Time)
 2b4:	80 91 7e 01 	lds	r24, 0x017E	; 0x80017e <Sampling_Time>
 2b8:	88 23       	and	r24, r24
 2ba:	21 f0       	breq	.+8      	; 0x2c4 <ADC__Handler+0x60>
		{
			Sampling_Time--;
 2bc:	81 50       	subi	r24, 0x01	; 1
 2be:	80 93 7e 01 	sts	0x017E, r24	; 0x80017e <Sampling_Time>
 2c2:	08 95       	ret
		}
		else
		{
			Adc_Step = ADC_STEP_CONFIG_CHANNEL;	
 2c4:	82 e0       	ldi	r24, 0x02	; 2
 2c6:	80 93 7d 01 	sts	0x017D, r24	; 0x80017d <Adc_Step>
 2ca:	08 95       	ret
		}
		break;

	case ADC_STEP_CONFIG_CHANNEL:
	    adc_pt->ADMUX_REG.byte |= (unsigned char)Adc_Channel;	// Configures the channel be read
 2cc:	e8 e7       	ldi	r30, 0x78	; 120
 2ce:	f0 e0       	ldi	r31, 0x00	; 0
 2d0:	94 81       	ldd	r25, Z+4	; 0x04
 2d2:	80 91 7f 01 	lds	r24, 0x017F	; 0x80017f <Adc_Channel>
 2d6:	89 2b       	or	r24, r25
 2d8:	84 83       	std	Z+4, r24	; 0x04
		// ADC habilitado, sem auto trigger, sem interrupção, prescaler 128
		adc_pt->ADCSRA_REG.byte =  0x87; 
 2da:	87 e8       	ldi	r24, 0x87	; 135
 2dc:	82 83       	std	Z+2, r24	; 0x02
		// INICIA conversão
		adc_pt->ADCSRA_REG.bit.bit6  = 1;    //seta bit 6 (ADSC)
 2de:	82 81       	ldd	r24, Z+2	; 0x02
 2e0:	80 64       	ori	r24, 0x40	; 64
 2e2:	82 83       	std	Z+2, r24	; 0x02
		Adc_Step = ADC_STEP_WAIT_CONVERSION;					// Set next step
 2e4:	83 e0       	ldi	r24, 0x03	; 3
 2e6:	80 93 7d 01 	sts	0x017D, r24	; 0x80017d <Adc_Step>
		break;
 2ea:	08 95       	ret
		
	case ADC_STEP_WAIT_CONVERSION:
		if(adc_pt->ADCSRA_REG.bit.bit6 == 0)	// Wait until conversion be completed
 2ec:	80 91 7a 00 	lds	r24, 0x007A	; 0x80007a <__TEXT_REGION_LENGTH__+0x7e007a>
 2f0:	86 fd       	sbrc	r24, 6
 2f2:	23 c0       	rjmp	.+70     	; 0x33a <ADC__Handler+0xd6>
		   	Adc_Step = ADC_STEP_READ_RESULT;
 2f4:	84 e0       	ldi	r24, 0x04	; 4
 2f6:	80 93 7d 01 	sts	0x017D, r24	; 0x80017d <Adc_Step>
 2fa:	08 95       	ret
		break;

	case ADC_STEP_READ_RESULT:  // AQUI é feita a leitura do ADC físico!!!
	    if(adc_pt->ADMUX_REG.bit.bit5 == 1)   //8 bits
 2fc:	80 91 7c 00 	lds	r24, 0x007C	; 0x80007c <__TEXT_REGION_LENGTH__+0x7e007c>
 300:	85 ff       	sbrs	r24, 5
 302:	03 c0       	rjmp	.+6      	; 0x30a <ADC__Handler+0xa6>
		   {
			value = (unsigned short int)((adc_pt->ADCH_REG.byte)& LO_BYTE_MASK); // 8 bits   
 304:	20 91 79 00 	lds	r18, 0x0079	; 0x800079 <__TEXT_REGION_LENGTH__+0x7e0079>
 308:	30 e0       	ldi	r19, 0x00	; 0
		   }
		if(adc_pt->ADMUX_REG.bit.bit5 == 0)    // 10 bits
 30a:	80 91 7c 00 	lds	r24, 0x007C	; 0x80007c <__TEXT_REGION_LENGTH__+0x7e007c>
 30e:	85 fd       	sbrc	r24, 5
 310:	06 c0       	rjmp	.+12     	; 0x31e <ADC__Handler+0xba>
		   {
			value = (unsigned short int)((adc_pt->ADCL_REG.byte)& LO_BYTE_MASK);
 312:	e8 e7       	ldi	r30, 0x78	; 120
 314:	f0 e0       	ldi	r31, 0x00	; 0
 316:	20 81       	ld	r18, Z
			value_high = (unsigned short int)(adc_pt->ADCH_REG.byte <<8); 
 318:	81 81       	ldd	r24, Z+1	; 0x01
			value |= value_high;	// Reads the conversion result bytes  
 31a:	30 e0       	ldi	r19, 0x00	; 0
 31c:	38 2b       	or	r19, r24
		   }

		ADC_Buffer[Adc_Channel] = value;  // A leitura do ADC é colocado no buffer ADC_Buffer do respectivo canal.
 31e:	e0 91 7f 01 	lds	r30, 0x017F	; 0x80017f <Adc_Channel>
 322:	f0 e0       	ldi	r31, 0x00	; 0
 324:	ee 0f       	add	r30, r30
 326:	ff 1f       	adc	r31, r31
 328:	ef 58       	subi	r30, 0x8F	; 143
 32a:	fe 4f       	sbci	r31, 0xFE	; 254
 32c:	31 83       	std	Z+1, r19	; 0x01
 32e:	20 83       	st	Z, r18
		Adc_Step = ADC_STEP_INIT;
 330:	10 92 7d 01 	sts	0x017D, r1	; 0x80017d <Adc_Step>
		
		   //if (value >= 127)
		    //Hal__SetLed(LED_3, 0); //liga LED4
		  //else
		    //Hal__SetLed(LED_3, 1); //desliga LED4
	 	 break;
 334:	08 95       	ret

	default:
		Adc_Step = ADC_STEP_INIT;
 336:	10 92 7d 01 	sts	0x017D, r1	; 0x80017d <Adc_Step>
 33a:	08 95       	ret

0000033c <ADC__ConfigModes>:
{
	volatile ADC_REG_TYPE *adc_pt;
	adc_pt = ADC_REGISTERS;
	
	 	// seleção da tensão de referencia:
	adc_pt->ADMUX_REG.bit.bit7 = 0;   //tensão de referencia 5V
 33c:	e8 e7       	ldi	r30, 0x78	; 120
 33e:	f0 e0       	ldi	r31, 0x00	; 0
 340:	94 81       	ldd	r25, Z+4	; 0x04
 342:	9f 77       	andi	r25, 0x7F	; 127
 344:	94 83       	std	Z+4, r25	; 0x04
	adc_pt->ADMUX_REG.bit.bit6 = 1;   //tensão de referencia 5V
 346:	94 81       	ldd	r25, Z+4	; 0x04
 348:	90 64       	ori	r25, 0x40	; 64
 34a:	94 83       	std	Z+4, r25	; 0x04
	
	if(mode < NUM_OF_MODES)
 34c:	82 30       	cpi	r24, 0x02	; 2
 34e:	68 f4       	brcc	.+26     	; 0x36a <ADC__ConfigModes+0x2e>
	{
		if (mode == MODE_8BITS)
 350:	81 11       	cpse	r24, r1
 352:	04 c0       	rjmp	.+8      	; 0x35c <ADC__ConfigModes+0x20>
		   adc_pt->ADMUX_REG.bit.bit5 = 1;  //Micro.h => ADLAR = 1, alinhado a esquerda e a leitura é no ADCH (8 bits)
 354:	84 81       	ldd	r24, Z+4	; 0x04
 356:	80 62       	ori	r24, 0x20	; 32
 358:	84 83       	std	Z+4, r24	; 0x04
 35a:	07 c0       	rjmp	.+14     	; 0x36a <ADC__ConfigModes+0x2e>
		if (mode == MODE_10BITS)
 35c:	81 30       	cpi	r24, 0x01	; 1
 35e:	29 f4       	brne	.+10     	; 0x36a <ADC__ConfigModes+0x2e>
		   adc_pt->ADMUX_REG.bit.bit5 = 0;  //ADLAR = 0, alinhado a direita e a leitura é primeiro no ADCL e depois ADCH (10 bits)
 360:	e8 e7       	ldi	r30, 0x78	; 120
 362:	f0 e0       	ldi	r31, 0x00	; 0
 364:	84 81       	ldd	r24, Z+4	; 0x04
 366:	8f 7d       	andi	r24, 0xDF	; 223
 368:	84 83       	std	Z+4, r24	; 0x04
	}
		
	if(conv_type < NUM_OF_CONVERSION_TYPES)
 36a:	62 30       	cpi	r22, 0x02	; 2
 36c:	78 f4       	brcc	.+30     	; 0x38c <ADC__ConfigModes+0x50>
	{
		if (conv_type == AD_SINGLE_CONVERSION)
 36e:	61 11       	cpse	r22, r1
 370:	06 c0       	rjmp	.+12     	; 0x37e <ADC__ConfigModes+0x42>
		   adc_pt->ADCSRA_REG.bit.bit5 = 0;      //Micro.h => ADATE = 0, uma leitura
 372:	e8 e7       	ldi	r30, 0x78	; 120
 374:	f0 e0       	ldi	r31, 0x00	; 0
 376:	82 81       	ldd	r24, Z+2	; 0x02
 378:	8f 7d       	andi	r24, 0xDF	; 223
 37a:	82 83       	std	Z+2, r24	; 0x02
 37c:	08 95       	ret
		if (conv_type == AD_CONTINUOUS_CONVERSION)
 37e:	61 30       	cpi	r22, 0x01	; 1
 380:	29 f4       	brne	.+10     	; 0x38c <ADC__ConfigModes+0x50>
		   adc_pt->ADCSRA_REG.bit.bit5 = 1;      //ADATE = 1, a fonte de disparo pode ser conversão continua, comparador analogico, etc 
 382:	e8 e7       	ldi	r30, 0x78	; 120
 384:	f0 e0       	ldi	r31, 0x00	; 0
 386:	82 81       	ldd	r24, Z+2	; 0x02
 388:	80 62       	ori	r24, 0x20	; 32
 38a:	82 83       	std	Z+2, r24	; 0x02
 38c:	08 95       	ret

0000038e <ADC__GetValue>:
 */


unsigned short int ADC__GetValue(AD_CHANNEL_TYPE channel)
{
	if(channel < NUM_OF_AD_CHANNELS)
 38e:	86 30       	cpi	r24, 0x06	; 6
 390:	48 f4       	brcc	.+18     	; 0x3a4 <ADC__GetValue+0x16>
	{
		return ADC_Buffer[channel];  // retorna valor do ADC lido no ADC_Buffer do canal solcitado!
 392:	e8 2f       	mov	r30, r24
 394:	f0 e0       	ldi	r31, 0x00	; 0
 396:	ee 0f       	add	r30, r30
 398:	ff 1f       	adc	r31, r31
 39a:	ef 58       	subi	r30, 0x8F	; 143
 39c:	fe 4f       	sbci	r31, 0xFE	; 254
 39e:	80 81       	ld	r24, Z
 3a0:	91 81       	ldd	r25, Z+1	; 0x01
 3a2:	08 95       	ret
	}
	return 0;
 3a4:	80 e0       	ldi	r24, 0x00	; 0
 3a6:	90 e0       	ldi	r25, 0x00	; 0
}
 3a8:	08 95       	ret

000003aa <Gpio__PinConfig>:
	volatile GPIO_DATA_TYPE *pt_data;
	//volatile GPIO_MISC_TYPE *pt_misc;
	unsigned char set_bit_mask;
	unsigned char clr_bit_mask;
	
	set_bit_mask = GPIO_PIN_SET_MASK[pin];
 3aa:	70 e0       	ldi	r23, 0x00	; 0
 3ac:	fb 01       	movw	r30, r22
 3ae:	e6 5b       	subi	r30, 0xB6	; 182
 3b0:	fe 4f       	sbci	r31, 0xFE	; 254
 3b2:	20 81       	ld	r18, Z
	clr_bit_mask = GPIO_PIN_CLR_MASK[pin];
	
	
	switch(port)
 3b4:	81 30       	cpi	r24, 0x01	; 1
 3b6:	31 f0       	breq	.+12     	; 0x3c4 <Gpio__PinConfig+0x1a>
 3b8:	18 f0       	brcs	.+6      	; 0x3c0 <Gpio__PinConfig+0x16>
 3ba:	82 30       	cpi	r24, 0x02	; 2
 3bc:	29 f0       	breq	.+10     	; 0x3c8 <Gpio__PinConfig+0x1e>
 3be:	05 c0       	rjmp	.+10     	; 0x3ca <Gpio__PinConfig+0x20>
	{
	case	PORT_B:
		pt_data = PORTB;   // Está no Micro.h: #define PORTA &GPIOA_DATA   => endereço 0x0000 00000
 3c0:	95 b1       	in	r25, 0x05	; 5
		break;
 3c2:	03 c0       	rjmp	.+6      	; 0x3ca <Gpio__PinConfig+0x20>
	case	PORT_C:
		pt_data = PORTC;
 3c4:	98 b1       	in	r25, 0x08	; 8
		break;
 3c6:	01 c0       	rjmp	.+2      	; 0x3ca <Gpio__PinConfig+0x20>
	case	PORT_D:
		pt_data = PORTD;
 3c8:	9b b1       	in	r25, 0x0b	; 11
		break;
	default:
		break;
	}
if(type == OUTPUT_DIGITAL)    // setar 1 para saída
 3ca:	41 30       	cpi	r20, 0x01	; 1
 3cc:	69 f4       	brne	.+26     	; 0x3e8 <Gpio__PinConfig+0x3e>
{
	//var = pt_data->DIRECION_REG.byte;
	//BIT_SET(var,pin);      // Está no C_types.h =>  #define BIT_SET(mem,bit)    ((mem)|=(1UL<<(bit))) //This macro is used to set the bit of the data
	//pt_data->DIRECION_REG.byte = var;  
	//   OU
	pt_data = GPIO_DATA_LIST[port];		 	
 3ce:	e8 2f       	mov	r30, r24
 3d0:	f0 e0       	ldi	r31, 0x00	; 0
 3d2:	ee 0f       	add	r30, r30
 3d4:	ff 1f       	adc	r31, r31
 3d6:	e0 50       	subi	r30, 0x00	; 0
 3d8:	ff 4f       	sbci	r31, 0xFF	; 255
 3da:	01 90       	ld	r0, Z+
 3dc:	f0 81       	ld	r31, Z
 3de:	e0 2d       	mov	r30, r0
	pt_data->DIRECION_REG.byte |= set_bit_mask;	// Config Output
 3e0:	81 81       	ldd	r24, Z+1	; 0x01
 3e2:	82 2b       	or	r24, r18
 3e4:	81 83       	std	Z+1, r24	; 0x01
 3e6:	08 95       	ret
}

if(type == INPUT_DIGITAL_PULLUP)
 3e8:	41 11       	cpse	r20, r1
 3ea:	14 c0       	rjmp	.+40     	; 0x414 <__LOCK_REGION_LENGTH__+0x14>
{
	pt_data = GPIO_DATA_LIST[port];		 	
 3ec:	e8 2f       	mov	r30, r24
 3ee:	f0 e0       	ldi	r31, 0x00	; 0
 3f0:	ee 0f       	add	r30, r30
 3f2:	ff 1f       	adc	r31, r31
 3f4:	e0 50       	subi	r30, 0x00	; 0
 3f6:	ff 4f       	sbci	r31, 0xFF	; 255
 3f8:	01 90       	ld	r0, Z+
 3fa:	f0 81       	ld	r31, Z
 3fc:	e0 2d       	mov	r30, r0
	pt_data->DIRECION_REG.byte &= clr_bit_mask; 	// Config Input
 3fe:	81 81       	ldd	r24, Z+1	; 0x01
	//volatile GPIO_MISC_TYPE *pt_misc;
	unsigned char set_bit_mask;
	unsigned char clr_bit_mask;
	
	set_bit_mask = GPIO_PIN_SET_MASK[pin];
	clr_bit_mask = GPIO_PIN_CLR_MASK[pin];
 400:	db 01       	movw	r26, r22
 402:	ae 5b       	subi	r26, 0xBE	; 190
 404:	be 4f       	sbci	r27, 0xFE	; 254
}

if(type == INPUT_DIGITAL_PULLUP)
{
	pt_data = GPIO_DATA_LIST[port];		 	
	pt_data->DIRECION_REG.byte &= clr_bit_mask; 	// Config Input
 406:	9c 91       	ld	r25, X
 408:	98 23       	and	r25, r24
 40a:	91 83       	std	Z+1, r25	; 0x01
	
	pt_data->DATA_OUT_PULL_REG.byte |= set_bit_mask;   // Config Input Pull up
 40c:	92 81       	ldd	r25, Z+2	; 0x02
 40e:	82 2f       	mov	r24, r18
 410:	89 2b       	or	r24, r25
 412:	82 83       	std	Z+2, r24	; 0x02
 414:	08 95       	ret

00000416 <Gpio__PinWrite>:
 **********************************************************************************/
void Gpio__PinWrite(GPIO_PORT port,unsigned char pin,unsigned char value)
{
	volatile GPIO_DATA_TYPE *pt_data;
	
	  if (value == 0)
 416:	41 11       	cpse	r20, r1
 418:	14 c0       	rjmp	.+40     	; 0x442 <Gpio__PinWrite+0x2c>
        {
        	pt_data = GPIO_DATA_LIST[port];		 	
 41a:	e8 2f       	mov	r30, r24
 41c:	f0 e0       	ldi	r31, 0x00	; 0
 41e:	ee 0f       	add	r30, r30
 420:	ff 1f       	adc	r31, r31
 422:	e0 50       	subi	r30, 0x00	; 0
 424:	ff 4f       	sbci	r31, 0xFF	; 255
 426:	a0 81       	ld	r26, Z
 428:	b1 81       	ldd	r27, Z+1	; 0x01
        	pt_data->DATA_OUT_PULL_REG.byte &= GPIO_PIN_CLR_MASK[pin];
 42a:	12 96       	adiw	r26, 0x02	; 2
 42c:	9c 91       	ld	r25, X
 42e:	12 97       	sbiw	r26, 0x02	; 2
 430:	e6 2f       	mov	r30, r22
 432:	f0 e0       	ldi	r31, 0x00	; 0
 434:	ee 5b       	subi	r30, 0xBE	; 190
 436:	fe 4f       	sbci	r31, 0xFE	; 254
 438:	80 81       	ld	r24, Z
 43a:	89 23       	and	r24, r25
 43c:	12 96       	adiw	r26, 0x02	; 2
 43e:	8c 93       	st	X, r24
 440:	08 95       	ret
        }
        else
        {
        	pt_data = GPIO_DATA_LIST[port];
 442:	e8 2f       	mov	r30, r24
 444:	f0 e0       	ldi	r31, 0x00	; 0
 446:	ee 0f       	add	r30, r30
 448:	ff 1f       	adc	r31, r31
 44a:	e0 50       	subi	r30, 0x00	; 0
 44c:	ff 4f       	sbci	r31, 0xFF	; 255
 44e:	a0 81       	ld	r26, Z
 450:	b1 81       	ldd	r27, Z+1	; 0x01
        	pt_data->DATA_OUT_PULL_REG.byte |= GPIO_PIN_SET_MASK[pin];
 452:	12 96       	adiw	r26, 0x02	; 2
 454:	9c 91       	ld	r25, X
 456:	12 97       	sbiw	r26, 0x02	; 2
 458:	e6 2f       	mov	r30, r22
 45a:	f0 e0       	ldi	r31, 0x00	; 0
 45c:	e6 5b       	subi	r30, 0xB6	; 182
 45e:	fe 4f       	sbci	r31, 0xFE	; 254
 460:	80 81       	ld	r24, Z
 462:	89 2b       	or	r24, r25
 464:	12 96       	adiw	r26, 0x02	; 2
 466:	8c 93       	st	X, r24
 468:	08 95       	ret

0000046a <Gpio__PinRead>:
unsigned char Gpio__PinRead(GPIO_PORT port,unsigned char pin)
{
	volatile GPIO_DATA_TYPE *pt_data;
	unsigned char pin_state = SW_OFF;       // pin_state = OFF  não pressionado  
	
		pt_data = GPIO_DATA_LIST[port];
 46a:	e8 2f       	mov	r30, r24
 46c:	f0 e0       	ldi	r31, 0x00	; 0
 46e:	ee 0f       	add	r30, r30
 470:	ff 1f       	adc	r31, r31
 472:	e0 50       	subi	r30, 0x00	; 0
 474:	ff 4f       	sbci	r31, 0xFF	; 255
 476:	01 90       	ld	r0, Z+
 478:	f0 81       	ld	r31, Z
 47a:	e0 2d       	mov	r30, r0
    	if (pt_data->DATA_IN_REG.byte & GPIO_PIN_SET_MASK[pin])     // if(leitura != 0)   ou if(leitura)
 47c:	90 81       	ld	r25, Z
 47e:	e6 2f       	mov	r30, r22
 480:	f0 e0       	ldi	r31, 0x00	; 0
 482:	e6 5b       	subi	r30, 0xB6	; 182
 484:	fe 4f       	sbci	r31, 0xFE	; 254
           pin_state = SW_OFF;     // pin_state = SW_OFF   não acionado
        else
		   pin_state = SW_ON;
   
    return (pin_state);
 486:	80 81       	ld	r24, Z
 488:	98 23       	and	r25, r24
 48a:	81 e0       	ldi	r24, 0x01	; 1
 48c:	09 f4       	brne	.+2      	; 0x490 <Gpio__PinRead+0x26>
 48e:	80 e0       	ldi	r24, 0x00	; 0
    
}
 490:	08 95       	ret

00000492 <Hal__SetLed>:
 */
unsigned short int Hal_GetAnalogInput(ANALOG_INPUT_TYPE input)
{
if(input < NUM_OF_ANALOG_INPUT)
   return Hal_Analog_Inputs[input];  // retorna o valor no buffer HAL_AnalogInputs do canal solicitado
}
 492:	90 e0       	ldi	r25, 0x00	; 0
 494:	66 23       	and	r22, r22
 496:	31 f0       	breq	.+12     	; 0x4a4 <Hal__SetLed+0x12>
 498:	fc 01       	movw	r30, r24
 49a:	ef 57       	subi	r30, 0x7F	; 127
 49c:	fe 4f       	sbci	r31, 0xFE	; 254
 49e:	21 e0       	ldi	r18, 0x01	; 1
 4a0:	20 83       	st	Z, r18
 4a2:	08 95       	ret
 4a4:	fc 01       	movw	r30, r24
 4a6:	ef 57       	subi	r30, 0x7F	; 127
 4a8:	fe 4f       	sbci	r31, 0xFE	; 254
 4aa:	10 82       	st	Z, r1
 4ac:	08 95       	ret

000004ae <Hal__SetAllLeds>:
 4ae:	e1 e8       	ldi	r30, 0x81	; 129
 4b0:	f1 e0       	ldi	r31, 0x01	; 1
 4b2:	25 e8       	ldi	r18, 0x85	; 133
 4b4:	31 e0       	ldi	r19, 0x01	; 1
 4b6:	91 e0       	ldi	r25, 0x01	; 1
 4b8:	88 23       	and	r24, r24
 4ba:	11 f0       	breq	.+4      	; 0x4c0 <Hal__SetAllLeds+0x12>
 4bc:	90 83       	st	Z, r25
 4be:	01 c0       	rjmp	.+2      	; 0x4c2 <Hal__SetAllLeds+0x14>
 4c0:	10 82       	st	Z, r1
 4c2:	31 96       	adiw	r30, 0x01	; 1
 4c4:	e2 17       	cp	r30, r18
 4c6:	f3 07       	cpc	r31, r19
 4c8:	b9 f7       	brne	.-18     	; 0x4b8 <Hal__SetAllLeds+0xa>
 4ca:	08 95       	ret

000004cc <Hal__Initialize>:
 4cc:	0f 93       	push	r16
 4ce:	1f 93       	push	r17
 4d0:	cf 93       	push	r28
 4d2:	df 93       	push	r29
 4d4:	ce e0       	ldi	r28, 0x0E	; 14
 4d6:	d1 e0       	ldi	r29, 0x01	; 1
 4d8:	06 e1       	ldi	r16, 0x16	; 22
 4da:	11 e0       	ldi	r17, 0x01	; 1
 4dc:	41 e0       	ldi	r20, 0x01	; 1
 4de:	69 81       	ldd	r22, Y+1	; 0x01
 4e0:	88 81       	ld	r24, Y
 4e2:	0e 94 d5 01 	call	0x3aa	; 0x3aa <Gpio__PinConfig>
 4e6:	22 96       	adiw	r28, 0x02	; 2
 4e8:	c0 17       	cp	r28, r16
 4ea:	d1 07       	cpc	r29, r17
 4ec:	b9 f7       	brne	.-18     	; 0x4dc <Hal__Initialize+0x10>
 4ee:	c6 e0       	ldi	r28, 0x06	; 6
 4f0:	d1 e0       	ldi	r29, 0x01	; 1
 4f2:	0e e0       	ldi	r16, 0x0E	; 14
 4f4:	11 e0       	ldi	r17, 0x01	; 1
 4f6:	40 e0       	ldi	r20, 0x00	; 0
 4f8:	69 81       	ldd	r22, Y+1	; 0x01
 4fa:	88 81       	ld	r24, Y
 4fc:	0e 94 d5 01 	call	0x3aa	; 0x3aa <Gpio__PinConfig>
 500:	22 96       	adiw	r28, 0x02	; 2
 502:	c0 17       	cp	r28, r16
 504:	d1 07       	cpc	r29, r17
 506:	b9 f7       	brne	.-18     	; 0x4f6 <Hal__Initialize+0x2a>
 508:	81 e0       	ldi	r24, 0x01	; 1
 50a:	0e 94 57 02 	call	0x4ae	; 0x4ae <Hal__SetAllLeds>
 50e:	54 9a       	sbi	0x0a, 4	; 10
 510:	57 9a       	sbi	0x0a, 7	; 10
 512:	20 9a       	sbi	0x04, 0	; 4
 514:	60 e0       	ldi	r22, 0x00	; 0
 516:	81 e0       	ldi	r24, 0x01	; 1
 518:	0e 94 9e 01 	call	0x33c	; 0x33c <ADC__ConfigModes>
 51c:	10 92 9d 01 	sts	0x019D, r1	; 0x80019d <AD_Mux_State>
 520:	85 e0       	ldi	r24, 0x05	; 5
 522:	80 93 80 01 	sts	0x0180, r24	; 0x800180 <AD_Channel>
 526:	e8 e5       	ldi	r30, 0x58	; 88
 528:	f1 e0       	ldi	r31, 0x01	; 1
 52a:	81 e9       	ldi	r24, 0x91	; 145
 52c:	91 e0       	ldi	r25, 0x01	; 1
 52e:	c5 ea       	ldi	r28, 0xA5	; 165
 530:	d1 e0       	ldi	r29, 0x01	; 1
 532:	6e e9       	ldi	r22, 0x9E	; 158
 534:	71 e0       	ldi	r23, 0x01	; 1
 536:	4e e5       	ldi	r20, 0x5E	; 94
 538:	51 e0       	ldi	r21, 0x01	; 1
 53a:	21 91       	ld	r18, Z+
 53c:	21 30       	cpi	r18, 0x01	; 1
 53e:	39 f4       	brne	.+14     	; 0x54e <Hal__Initialize+0x82>
 540:	dc 01       	movw	r26, r24
 542:	1d 92       	st	X+, r1
 544:	1c 92       	st	X, r1
 546:	19 82       	std	Y+1, r1	; 0x01
 548:	18 82       	st	Y, r1
 54a:	db 01       	movw	r26, r22
 54c:	1c 92       	st	X, r1
 54e:	02 96       	adiw	r24, 0x02	; 2
 550:	22 96       	adiw	r28, 0x02	; 2
 552:	6f 5f       	subi	r22, 0xFF	; 255
 554:	7f 4f       	sbci	r23, 0xFF	; 255
 556:	e4 17       	cp	r30, r20
 558:	f5 07       	cpc	r31, r21
 55a:	79 f7       	brne	.-34     	; 0x53a <Hal__Initialize+0x6e>
 55c:	df 91       	pop	r29
 55e:	cf 91       	pop	r28
 560:	1f 91       	pop	r17
 562:	0f 91       	pop	r16
 564:	08 95       	ret

00000566 <Hal__ReadKey>:
 566:	28 2f       	mov	r18, r24
 568:	84 30       	cpi	r24, 0x04	; 4
 56a:	70 f4       	brcc	.+28     	; 0x588 <Hal__ReadKey+0x22>
 56c:	80 91 a4 01 	lds	r24, 0x01A4	; 0x8001a4 <Hal_Keys_Buffer>
 570:	90 e0       	ldi	r25, 0x00	; 0
 572:	a0 e0       	ldi	r26, 0x00	; 0
 574:	b0 e0       	ldi	r27, 0x00	; 0
 576:	04 c0       	rjmp	.+8      	; 0x580 <Hal__ReadKey+0x1a>
 578:	b6 95       	lsr	r27
 57a:	a7 95       	ror	r26
 57c:	97 95       	ror	r25
 57e:	87 95       	ror	r24
 580:	2a 95       	dec	r18
 582:	d2 f7       	brpl	.-12     	; 0x578 <Hal__ReadKey+0x12>
 584:	81 70       	andi	r24, 0x01	; 1
 586:	08 95       	ret
 588:	80 e0       	ldi	r24, 0x00	; 0
 58a:	08 95       	ret

0000058c <Hal__WriteValtoSegment>:
 58c:	0e 94 da 03 	call	0x7b4	; 0x7b4 <SevenSeg_WriteValueToSegment>
 590:	08 95       	ret

00000592 <LEDsUpdate>:
//---------------------------------------------------------------------------------------------------------------------
/**
 *  This local function update the LEDs status
 */
void LEDsUpdate(void)
{
 592:	af 92       	push	r10
 594:	bf 92       	push	r11
 596:	cf 92       	push	r12
 598:	df 92       	push	r13
 59a:	ef 92       	push	r14
 59c:	ff 92       	push	r15
 59e:	0f 93       	push	r16
 5a0:	1f 93       	push	r17
 5a2:	cf 93       	push	r28
 5a4:	df 93       	push	r29
 5a6:	c2 e6       	ldi	r28, 0x62	; 98
 5a8:	d1 e0       	ldi	r29, 0x01	; 1
 5aa:	0f 2e       	mov	r0, r31
 5ac:	f1 e8       	ldi	r31, 0x81	; 129
 5ae:	ef 2e       	mov	r14, r31
 5b0:	f1 e0       	ldi	r31, 0x01	; 1
 5b2:	ff 2e       	mov	r15, r31
 5b4:	f0 2d       	mov	r31, r0
 5b6:	0e e0       	ldi	r16, 0x0E	; 14
 5b8:	11 e0       	ldi	r17, 0x01	; 1
 5ba:	0f 2e       	mov	r0, r31
 5bc:	f6 e6       	ldi	r31, 0x66	; 102
 5be:	cf 2e       	mov	r12, r31
 5c0:	f1 e0       	ldi	r31, 0x01	; 1
 5c2:	df 2e       	mov	r13, r31
 5c4:	f0 2d       	mov	r31, r0
			value = LED_ON;
			if(Hal_Leds_Buffer[index] > 0)
			{
				value = LED_OFF;
			}
			Gpio__PinWrite(LED_GPIO[index].port, LED_GPIO[index].pin, value);
 5c6:	bb 24       	eor	r11, r11
 5c8:	b3 94       	inc	r11
 5ca:	a1 2c       	mov	r10, r1
	unsigned char value;
	
	//LEDs Update
	for(index = 0; index < NUM_OF_LEDS; index++)
	{
		if(Leds_Enable_Table[index] == ENABLED) // Update GPIO only if current LED is configured to be used
 5cc:	89 91       	ld	r24, Y+
 5ce:	81 30       	cpi	r24, 0x01	; 1
 5d0:	59 f4       	brne	.+22     	; 0x5e8 <LEDsUpdate+0x56>
 5d2:	f8 01       	movw	r30, r16
			value = LED_ON;
			if(Hal_Leds_Buffer[index] > 0)
			{
				value = LED_OFF;
			}
			Gpio__PinWrite(LED_GPIO[index].port, LED_GPIO[index].pin, value);
 5d4:	4b 2d       	mov	r20, r11
 5d6:	d7 01       	movw	r26, r14
 5d8:	8c 91       	ld	r24, X
 5da:	81 11       	cpse	r24, r1
 5dc:	01 c0       	rjmp	.+2      	; 0x5e0 <LEDsUpdate+0x4e>
 5de:	4a 2d       	mov	r20, r10
 5e0:	61 81       	ldd	r22, Z+1	; 0x01
 5e2:	80 81       	ld	r24, Z
 5e4:	0e 94 0b 02 	call	0x416	; 0x416 <Gpio__PinWrite>
 5e8:	bf ef       	ldi	r27, 0xFF	; 255
 5ea:	eb 1a       	sub	r14, r27
 5ec:	fb 0a       	sbc	r15, r27
 5ee:	0e 5f       	subi	r16, 0xFE	; 254
 5f0:	1f 4f       	sbci	r17, 0xFF	; 255
{
	unsigned char index;
	unsigned char value;
	
	//LEDs Update
	for(index = 0; index < NUM_OF_LEDS; index++)
 5f2:	cc 15       	cp	r28, r12
 5f4:	dd 05       	cpc	r29, r13
 5f6:	51 f7       	brne	.-44     	; 0x5cc <LEDsUpdate+0x3a>
				value = LED_OFF;
			}
			Gpio__PinWrite(LED_GPIO[index].port, LED_GPIO[index].pin, value);
		}
	}
}
 5f8:	df 91       	pop	r29
 5fa:	cf 91       	pop	r28
 5fc:	1f 91       	pop	r17
 5fe:	0f 91       	pop	r16
 600:	ff 90       	pop	r15
 602:	ef 90       	pop	r14
 604:	df 90       	pop	r13
 606:	cf 90       	pop	r12
 608:	bf 90       	pop	r11
 60a:	af 90       	pop	r10
 60c:	08 95       	ret

0000060e <KeysRead>:
/**
 *  This local function reads the keys input and update the Hal_Keys_Buffer
 */

void KeysRead(void)
{
 60e:	8f 92       	push	r8
 610:	9f 92       	push	r9
 612:	af 92       	push	r10
 614:	bf 92       	push	r11
 616:	df 92       	push	r13
 618:	ef 92       	push	r14
 61a:	ff 92       	push	r15
 61c:	0f 93       	push	r16
 61e:	1f 93       	push	r17
 620:	cf 93       	push	r28
 622:	df 93       	push	r29
 624:	0f 2e       	mov	r0, r31
 626:	fe e5       	ldi	r31, 0x5E	; 94
 628:	ef 2e       	mov	r14, r31
 62a:	f1 e0       	ldi	r31, 0x01	; 1
 62c:	ff 2e       	mov	r15, r31
 62e:	f0 2d       	mov	r31, r0
 630:	06 e0       	ldi	r16, 0x06	; 6
 632:	11 e0       	ldi	r17, 0x01	; 1
 634:	c0 e0       	ldi	r28, 0x00	; 0
 636:	d0 e0       	ldi	r29, 0x00	; 0
			{
				BIT_SET(Hal_Keys_Buffer,key_index);
			}
			else
			{
				BIT_CLR(Hal_Keys_Buffer,key_index);
 638:	81 2c       	mov	r8, r1
 63a:	91 2c       	mov	r9, r1
 63c:	54 01       	movw	r10, r8
 63e:	83 94       	inc	r8
	KEY_INPUT_TYPE key_index;
	unsigned char value;
	
	for(key_index = KEY_0; key_index < NUM_OF_KEYS; key_index++)
	{
		if(Keys_Enable_Table[key_index] == ENABLED)
 640:	f7 01       	movw	r30, r14
 642:	81 91       	ld	r24, Z+
 644:	7f 01       	movw	r14, r30
 646:	81 30       	cpi	r24, 0x01	; 1
 648:	39 f5       	brne	.+78     	; 0x698 <KeysRead+0x8a>
		{
			value = Gpio__PinRead(KEYS_GPIO[key_index].port, KEYS_GPIO[key_index].pin);
 64a:	f8 01       	movw	r30, r16
 64c:	61 81       	ldd	r22, Z+1	; 0x01
 64e:	80 81       	ld	r24, Z
 650:	0e 94 35 02 	call	0x46a	; 0x46a <Gpio__PinRead>
			if(value == KEY_PRESSED)
 654:	81 11       	cpse	r24, r1
 656:	10 c0       	rjmp	.+32     	; 0x678 <KeysRead+0x6a>
			{
				BIT_SET(Hal_Keys_Buffer,key_index);
 658:	d5 01       	movw	r26, r10
 65a:	c4 01       	movw	r24, r8
 65c:	0c 2e       	mov	r0, r28
 65e:	04 c0       	rjmp	.+8      	; 0x668 <KeysRead+0x5a>
 660:	88 0f       	add	r24, r24
 662:	99 1f       	adc	r25, r25
 664:	aa 1f       	adc	r26, r26
 666:	bb 1f       	adc	r27, r27
 668:	0a 94       	dec	r0
 66a:	d2 f7       	brpl	.-12     	; 0x660 <KeysRead+0x52>
 66c:	20 91 a4 01 	lds	r18, 0x01A4	; 0x8001a4 <Hal_Keys_Buffer>
 670:	82 2b       	or	r24, r18
 672:	80 93 a4 01 	sts	0x01A4, r24	; 0x8001a4 <Hal_Keys_Buffer>
 676:	10 c0       	rjmp	.+32     	; 0x698 <KeysRead+0x8a>
			}
			else
			{
				BIT_CLR(Hal_Keys_Buffer,key_index);
 678:	d5 01       	movw	r26, r10
 67a:	c4 01       	movw	r24, r8
 67c:	0c 2e       	mov	r0, r28
 67e:	04 c0       	rjmp	.+8      	; 0x688 <KeysRead+0x7a>
 680:	88 0f       	add	r24, r24
 682:	99 1f       	adc	r25, r25
 684:	aa 1f       	adc	r26, r26
 686:	bb 1f       	adc	r27, r27
 688:	0a 94       	dec	r0
 68a:	d2 f7       	brpl	.-12     	; 0x680 <KeysRead+0x72>
 68c:	80 95       	com	r24
 68e:	90 91 a4 01 	lds	r25, 0x01A4	; 0x8001a4 <Hal_Keys_Buffer>
 692:	89 23       	and	r24, r25
 694:	80 93 a4 01 	sts	0x01A4, r24	; 0x8001a4 <Hal_Keys_Buffer>
 698:	21 96       	adiw	r28, 0x01	; 1
 69a:	0e 5f       	subi	r16, 0xFE	; 254
 69c:	1f 4f       	sbci	r17, 0xFF	; 255
{
	//Keys read
	KEY_INPUT_TYPE key_index;
	unsigned char value;
	
	for(key_index = KEY_0; key_index < NUM_OF_KEYS; key_index++)
 69e:	c4 30       	cpi	r28, 0x04	; 4
 6a0:	d1 05       	cpc	r29, r1
 6a2:	71 f6       	brne	.-100    	; 0x640 <KeysRead+0x32>

			}
		}
	}

}
 6a4:	df 91       	pop	r29
 6a6:	cf 91       	pop	r28
 6a8:	1f 91       	pop	r17
 6aa:	0f 91       	pop	r16
 6ac:	ff 90       	pop	r15
 6ae:	ef 90       	pop	r14
 6b0:	df 90       	pop	r13
 6b2:	bf 90       	pop	r11
 6b4:	af 90       	pop	r10
 6b6:	9f 90       	pop	r9
 6b8:	8f 90       	pop	r8
 6ba:	08 95       	ret

000006bc <Hal__FastHandler>:
 *  This function shall run in background in the main loop 
 *  Call rate: 1ms, 5ms, 10ms, ...PARA GPIO
 */
void Hal__FastHandler(void)
{
	LEDsUpdate();
 6bc:	0e 94 c9 02 	call	0x592	; 0x592 <LEDsUpdate>
	KeysRead();
 6c0:	0e 94 07 03 	call	0x60e	; 0x60e <KeysRead>
 6c4:	08 95       	ret

000006c6 <ADProcess>:
 *  This local function reads the analog input and update the buffer Hal_Analog_inputs[]
    ROTINA ONDE SÃO FEITAS AS VÁRIAS LEITURAS DE AMOSTRAGEM (NUM_AD_SAMPLES) E DEPOIS TIRADO A MÉDIA DOS  VALORES
****/

void ADProcess(void)
{
 6c6:	cf 93       	push	r28
 6c8:	df 93       	push	r29
switch (AD_Mux_State)
 6ca:	80 91 9d 01 	lds	r24, 0x019D	; 0x80019d <AD_Mux_State>
 6ce:	81 30       	cpi	r24, 0x01	; 1
 6d0:	19 f0       	breq	.+6      	; 0x6d8 <ADProcess+0x12>
 6d2:	83 30       	cpi	r24, 0x03	; 3
 6d4:	31 f0       	breq	.+12     	; 0x6e2 <ADProcess+0x1c>
 6d6:	5d c0       	rjmp	.+186    	; 0x792 <ADProcess+0xcc>
  {
  case MUX_INIT:
    break;
  case MUX_AD_CONFIG:
    ADC__ConfigModes(MODE_10BITS,AD_SINGLE_CONVERSION);
 6d8:	60 e0       	ldi	r22, 0x00	; 0
 6da:	81 e0       	ldi	r24, 0x01	; 1
 6dc:	0e 94 9e 01 	call	0x33c	; 0x33c <ADC__ConfigModes>
    break;
 6e0:	58 c0       	rjmp	.+176    	; 0x792 <ADProcess+0xcc>
  case MUX_DUMMY_STATE_1: //=> This state is placed in order to assure the raising time for ADC reading
    break;
  case MUX_AD_READ:
      if(AD_Enable_Table[AD_Channel] == ENABLED)
 6e2:	c0 91 80 01 	lds	r28, 0x0180	; 0x800180 <AD_Channel>
 6e6:	d0 e0       	ldi	r29, 0x00	; 0
 6e8:	fe 01       	movw	r30, r28
 6ea:	e8 5a       	subi	r30, 0xA8	; 168
 6ec:	fe 4f       	sbci	r31, 0xFE	; 254
 6ee:	80 81       	ld	r24, Z
 6f0:	81 30       	cpi	r24, 0x01	; 1
 6f2:	09 f0       	breq	.+2      	; 0x6f6 <ADProcess+0x30>
 6f4:	44 c0       	rjmp	.+136    	; 0x77e <ADProcess+0xb8>
         {
         if(AD_Counter[AD_Channel] < NUM_AD_SAMPLES)
 6f6:	fe 01       	movw	r30, r28
 6f8:	e2 56       	subi	r30, 0x62	; 98
 6fa:	fe 4f       	sbci	r31, 0xFE	; 254
 6fc:	80 81       	ld	r24, Z
 6fe:	88 30       	cpi	r24, 0x08	; 8
 700:	38 f5       	brcc	.+78     	; 0x750 <ADProcess+0x8a>
             {
             AD_Sample[AD_Channel] = ADC__GetValue(AD_Channel_Table[AD_Channel]);
 702:	fe 01       	movw	r30, r28
 704:	ee 5a       	subi	r30, 0xAE	; 174
 706:	fe 4f       	sbci	r31, 0xFE	; 254
 708:	80 81       	ld	r24, Z
 70a:	0e 94 c7 01 	call	0x38e	; 0x38e <ADC__GetValue>
 70e:	cc 0f       	add	r28, r28
 710:	dd 1f       	adc	r29, r29
 712:	cb 57       	subi	r28, 0x7B	; 123
 714:	de 4f       	sbci	r29, 0xFE	; 254
 716:	99 83       	std	Y+1, r25	; 0x01
 718:	88 83       	st	Y, r24
             AD_Accumulator[AD_Channel] += AD_Sample[AD_Channel];
 71a:	e0 91 80 01 	lds	r30, 0x0180	; 0x800180 <AD_Channel>
 71e:	f0 e0       	ldi	r31, 0x00	; 0
 720:	cf 01       	movw	r24, r30
 722:	88 0f       	add	r24, r24
 724:	99 1f       	adc	r25, r25
 726:	dc 01       	movw	r26, r24
 728:	ab 55       	subi	r26, 0x5B	; 91
 72a:	be 4f       	sbci	r27, 0xFE	; 254
 72c:	ec 01       	movw	r28, r24
 72e:	cb 57       	subi	r28, 0x7B	; 123
 730:	de 4f       	sbci	r29, 0xFE	; 254
 732:	2d 91       	ld	r18, X+
 734:	3c 91       	ld	r19, X
 736:	11 97       	sbiw	r26, 0x01	; 1
 738:	88 81       	ld	r24, Y
 73a:	99 81       	ldd	r25, Y+1	; 0x01
 73c:	82 0f       	add	r24, r18
 73e:	93 1f       	adc	r25, r19
 740:	8d 93       	st	X+, r24
 742:	9c 93       	st	X, r25
             AD_Counter[AD_Channel]++;
 744:	e2 56       	subi	r30, 0x62	; 98
 746:	fe 4f       	sbci	r31, 0xFE	; 254
 748:	80 81       	ld	r24, Z
 74a:	8f 5f       	subi	r24, 0xFF	; 255
 74c:	80 83       	st	Z, r24
 74e:	17 c0       	rjmp	.+46     	; 0x77e <ADProcess+0xb8>
             }
         else
            {  // O Buffer Hal_Analog_Inputs[] é a média do valor de ADC e éAQUI atualizado!
            Hal_Analog_Inputs[AD_Channel] = (unsigned short int)(AD_Accumulator[AD_Channel]/NUM_AD_SAMPLES);
 750:	fe 01       	movw	r30, r28
 752:	ee 0f       	add	r30, r30
 754:	ff 1f       	adc	r31, r31
 756:	df 01       	movw	r26, r30
 758:	af 56       	subi	r26, 0x6F	; 111
 75a:	be 4f       	sbci	r27, 0xFE	; 254
 75c:	eb 55       	subi	r30, 0x5B	; 91
 75e:	fe 4f       	sbci	r31, 0xFE	; 254
 760:	80 81       	ld	r24, Z
 762:	91 81       	ldd	r25, Z+1	; 0x01
 764:	96 95       	lsr	r25
 766:	87 95       	ror	r24
 768:	96 95       	lsr	r25
 76a:	87 95       	ror	r24
 76c:	96 95       	lsr	r25
 76e:	87 95       	ror	r24
 770:	8d 93       	st	X+, r24
 772:	9c 93       	st	X, r25
            AD_Accumulator[AD_Channel] = 0;
 774:	11 82       	std	Z+1, r1	; 0x01
 776:	10 82       	st	Z, r1
            AD_Counter[AD_Channel] = 0;
 778:	c2 56       	subi	r28, 0x62	; 98
 77a:	de 4f       	sbci	r29, 0xFE	; 254
 77c:	18 82       	st	Y, r1
            }
          } 
       AD_Channel++;
 77e:	80 91 80 01 	lds	r24, 0x0180	; 0x800180 <AD_Channel>
 782:	8f 5f       	subi	r24, 0xFF	; 255
       if(AD_Channel >= NUM_OF_ANALOG_INPUT)
 784:	86 30       	cpi	r24, 0x06	; 6
 786:	18 f4       	brcc	.+6      	; 0x78e <ADProcess+0xc8>
            Hal_Analog_Inputs[AD_Channel] = (unsigned short int)(AD_Accumulator[AD_Channel]/NUM_AD_SAMPLES);
            AD_Accumulator[AD_Channel] = 0;
            AD_Counter[AD_Channel] = 0;
            }
          } 
       AD_Channel++;
 788:	80 93 80 01 	sts	0x0180, r24	; 0x800180 <AD_Channel>
 78c:	02 c0       	rjmp	.+4      	; 0x792 <ADProcess+0xcc>
       if(AD_Channel >= NUM_OF_ANALOG_INPUT)
         {
         AD_Channel = 0;
 78e:	10 92 80 01 	sts	0x0180, r1	; 0x800180 <AD_Channel>
       break;
  default:
       break;
  }

AD_Mux_State++;                                // Ticking the state machine.
 792:	80 91 9d 01 	lds	r24, 0x019D	; 0x80019d <AD_Mux_State>
 796:	8f 5f       	subi	r24, 0xFF	; 255

if (AD_Mux_State >= NUM_MUX_STEPS)
 798:	84 30       	cpi	r24, 0x04	; 4
 79a:	18 f4       	brcc	.+6      	; 0x7a2 <ADProcess+0xdc>
       break;
  default:
       break;
  }

AD_Mux_State++;                                // Ticking the state machine.
 79c:	80 93 9d 01 	sts	0x019D, r24	; 0x80019d <AD_Mux_State>
 7a0:	03 c0       	rjmp	.+6      	; 0x7a8 <ADProcess+0xe2>

if (AD_Mux_State >= NUM_MUX_STEPS)
  {
  AD_Mux_State = MUX_AD_CONFIG;
 7a2:	81 e0       	ldi	r24, 0x01	; 1
 7a4:	80 93 9d 01 	sts	0x019D, r24	; 0x80019d <AD_Mux_State>
  }
 7a8:	df 91       	pop	r29
 7aa:	cf 91       	pop	r28
 7ac:	08 95       	ret

000007ae <Hal__BackgroundHandler>:
 *  This function shall run in background in the main loop 
 *  Call rate: 1ms, 5ms, 10ms, ...PARA ADC
 */
void Hal__BackgroundHandler(void)
{
 ADProcess();	
 7ae:	0e 94 63 03 	call	0x6c6	; 0x6c6 <ADProcess>
 7b2:	08 95       	ret

000007b4 <SevenSeg_WriteValueToSegment>:
const char SEGMENT_SELECT[] = {0xF1,0xF2,0xF4,0xF8};


/* Write a value to one of the 4 digits of the display */
void SevenSeg_WriteValueToSegment(char Segment, char *Value)
{
 7b4:	fb 01       	movw	r30, r22
	bitClear(PORTD, 4);
 7b6:	5c 98       	cbi	0x0b, 4	; 11
 7b8:	47 e0       	ldi	r20, 0x07	; 7
 7ba:	50 e0       	ldi	r21, 0x00	; 0

	for (uint8_t i = 0; i < 8; i++)  {
		bitWrite(PORTB, 0, !!((*Value) & (1 << (7 - i))));
 7bc:	20 81       	ld	r18, Z
 7be:	30 e0       	ldi	r19, 0x00	; 0
 7c0:	04 2e       	mov	r0, r20
 7c2:	02 c0       	rjmp	.+4      	; 0x7c8 <SevenSeg_WriteValueToSegment+0x14>
 7c4:	35 95       	asr	r19
 7c6:	27 95       	ror	r18
 7c8:	0a 94       	dec	r0
 7ca:	e2 f7       	brpl	.-8      	; 0x7c4 <SevenSeg_WriteValueToSegment+0x10>
 7cc:	20 ff       	sbrs	r18, 0
 7ce:	02 c0       	rjmp	.+4      	; 0x7d4 <SevenSeg_WriteValueToSegment+0x20>
 7d0:	28 9a       	sbi	0x05, 0	; 5
 7d2:	01 c0       	rjmp	.+2      	; 0x7d6 <SevenSeg_WriteValueToSegment+0x22>
 7d4:	28 98       	cbi	0x05, 0	; 5
		bitSet(PORTD, 7);
 7d6:	5f 9a       	sbi	0x0b, 7	; 11
		bitClear(PORTD, 7);
 7d8:	5f 98       	cbi	0x0b, 7	; 11
 7da:	41 50       	subi	r20, 0x01	; 1
 7dc:	51 09       	sbc	r21, r1
 7de:	70 f7       	brcc	.-36     	; 0x7bc <SevenSeg_WriteValueToSegment+0x8>
 7e0:	27 e0       	ldi	r18, 0x07	; 7
 7e2:	30 e0       	ldi	r19, 0x00	; 0
	}

	for (uint8_t i = 0; i < 8; i++)  {
		bitWrite(PORTB, 0, !!(SEGMENT_SELECT[Segment] & (1 << (7 - i))));
 7e4:	e8 2f       	mov	r30, r24
 7e6:	f0 e0       	ldi	r31, 0x00	; 0
 7e8:	ea 59       	subi	r30, 0x9A	; 154
 7ea:	fe 4f       	sbci	r31, 0xFE	; 254
 7ec:	40 81       	ld	r20, Z
 7ee:	50 e0       	ldi	r21, 0x00	; 0
 7f0:	ca 01       	movw	r24, r20
 7f2:	02 2e       	mov	r0, r18
 7f4:	02 c0       	rjmp	.+4      	; 0x7fa <SevenSeg_WriteValueToSegment+0x46>
 7f6:	95 95       	asr	r25
 7f8:	87 95       	ror	r24
 7fa:	0a 94       	dec	r0
 7fc:	e2 f7       	brpl	.-8      	; 0x7f6 <SevenSeg_WriteValueToSegment+0x42>
 7fe:	80 ff       	sbrs	r24, 0
 800:	02 c0       	rjmp	.+4      	; 0x806 <SevenSeg_WriteValueToSegment+0x52>
 802:	28 9a       	sbi	0x05, 0	; 5
 804:	01 c0       	rjmp	.+2      	; 0x808 <SevenSeg_WriteValueToSegment+0x54>
 806:	28 98       	cbi	0x05, 0	; 5
		bitSet(PORTD, 7);
 808:	5f 9a       	sbi	0x0b, 7	; 11
		bitClear(PORTD, 7);
 80a:	5f 98       	cbi	0x0b, 7	; 11
 80c:	21 50       	subi	r18, 0x01	; 1
 80e:	31 09       	sbc	r19, r1
 810:	78 f7       	brcc	.-34     	; 0x7f0 <SevenSeg_WriteValueToSegment+0x3c>
	}

	bitSet(PORTD, 4);
 812:	5c 9a       	sbi	0x0b, 4	; 11
 814:	08 95       	ret

00000816 <Display__Initialize>:
/**
 *  
 */
void Display__Initialize(void)
{
	Oven_Display_State = OVEN_INIT;
 816:	84 e0       	ldi	r24, 0x04	; 4
 818:	80 93 b2 01 	sts	0x01B2, r24	; 0x8001b2 <Oven_Display_State>
	Display_Keys_Map = KEY_OFF_EVENT;
 81c:	10 92 b1 01 	sts	0x01B1, r1	; 0x8001b1 <Display_Keys_Map>
 820:	08 95       	ret

00000822 <Display__SetState>:
/**
 *  
 */
void Display__SetState(OVEN_DISPLAY_STATE_TYPE state)
{
	if(state < NUM_OF_OVEN_STATES)
 822:	86 30       	cpi	r24, 0x06	; 6
 824:	10 f4       	brcc	.+4      	; 0x82a <Display__SetState+0x8>
	{
		Oven_Display_State = state;
 826:	80 93 b2 01 	sts	0x01B2, r24	; 0x8001b2 <Oven_Display_State>
 82a:	08 95       	ret

0000082c <UpdateDisplayLeds>:
 */
void UpdateDisplayLeds(void)
{
	unsigned short int ad_value;
	
	switch(Oven_Display_State)
 82c:	80 91 b2 01 	lds	r24, 0x01B2	; 0x8001b2 <Oven_Display_State>
 830:	81 30       	cpi	r24, 0x01	; 1
 832:	51 f0       	breq	.+20     	; 0x848 <UpdateDisplayLeds+0x1c>
 834:	28 f0       	brcs	.+10     	; 0x840 <UpdateDisplayLeds+0x14>
 836:	82 30       	cpi	r24, 0x02	; 2
 838:	a1 f0       	breq	.+40     	; 0x862 <UpdateDisplayLeds+0x36>
 83a:	83 30       	cpi	r24, 0x03	; 3
 83c:	f9 f0       	breq	.+62     	; 0x87c <UpdateDisplayLeds+0x50>
 83e:	08 95       	ret
	{
	case OVEN_OFF:
	      {
	       Hal__SetAllLeds(APAGA_LED);
 840:	81 e0       	ldi	r24, 0x01	; 1
 842:	0e 94 57 02 	call	0x4ae	; 0x4ae <Hal__SetAllLeds>
		   break;
 846:	08 95       	ret
	case OVEN_INIT:
	case OVEN_TIMEOUT:
	   	break;
	case OVEN_MIN:
	    {
		Hal__SetLed(LED_0, ACENDE_LED);
 848:	60 e0       	ldi	r22, 0x00	; 0
 84a:	80 e0       	ldi	r24, 0x00	; 0
 84c:	0e 94 49 02 	call	0x492	; 0x492 <Hal__SetLed>
		Hal__SetLed(LED_1, APAGA_LED);
 850:	61 e0       	ldi	r22, 0x01	; 1
 852:	81 e0       	ldi	r24, 0x01	; 1
 854:	0e 94 49 02 	call	0x492	; 0x492 <Hal__SetLed>
		Hal__SetLed(LED_2, APAGA_LED);
 858:	61 e0       	ldi	r22, 0x01	; 1
 85a:	82 e0       	ldi	r24, 0x02	; 2
 85c:	0e 94 49 02 	call	0x492	; 0x492 <Hal__SetLed>
	    
		//if (ad_value > 200)  
		//   Hal__SetLed(LED_3, 0);
		//else
		  // Hal__SetLed(LED_3, 1);
		break;
 860:	08 95       	ret
	    }
	case OVEN_MED:
	{
		Hal__SetLed(LED_0, ACENDE_LED);
 862:	60 e0       	ldi	r22, 0x00	; 0
 864:	80 e0       	ldi	r24, 0x00	; 0
 866:	0e 94 49 02 	call	0x492	; 0x492 <Hal__SetLed>
		Hal__SetLed(LED_1, ACENDE_LED);
 86a:	60 e0       	ldi	r22, 0x00	; 0
 86c:	81 e0       	ldi	r24, 0x01	; 1
 86e:	0e 94 49 02 	call	0x492	; 0x492 <Hal__SetLed>
		Hal__SetLed(LED_2, APAGA_LED);
 872:	61 e0       	ldi	r22, 0x01	; 1
 874:	82 e0       	ldi	r24, 0x02	; 2
 876:	0e 94 49 02 	call	0x492	; 0x492 <Hal__SetLed>
		//ad_value = Hal_GetAnalogInput(POT_EXT);
		//if (ad_value > 500)    
		//	Hal__SetLed(LED_3, 0);
		//else
		//	Hal__SetLed(LED_3, 1);
		break;
 87a:	08 95       	ret
	}
	case OVEN_MAX:
	{
		Hal__SetLed(LED_0, ACENDE_LED);
 87c:	60 e0       	ldi	r22, 0x00	; 0
 87e:	80 e0       	ldi	r24, 0x00	; 0
 880:	0e 94 49 02 	call	0x492	; 0x492 <Hal__SetLed>
		Hal__SetLed(LED_1, ACENDE_LED);
 884:	60 e0       	ldi	r22, 0x00	; 0
 886:	81 e0       	ldi	r24, 0x01	; 1
 888:	0e 94 49 02 	call	0x492	; 0x492 <Hal__SetLed>
		Hal__SetLed(LED_2, ACENDE_LED);
 88c:	60 e0       	ldi	r22, 0x00	; 0
 88e:	82 e0       	ldi	r24, 0x02	; 2
 890:	0e 94 49 02 	call	0x492	; 0x492 <Hal__SetLed>
 894:	08 95       	ret

00000896 <ReadDisplayKeys>:
void ReadDisplayKeys(void)
{
        unsigned char leitura;
        //Display_Keys_Map = KEY_NONE;
		
		leitura = Hal__ReadKey(KEY_0);
 896:	80 e0       	ldi	r24, 0x00	; 0
 898:	0e 94 b3 02 	call	0x566	; 0x566 <Hal__ReadKey>
		if(leitura  == TRUE)
 89c:	81 30       	cpi	r24, 0x01	; 1
 89e:	11 f4       	brne	.+4      	; 0x8a4 <ReadDisplayKeys+0xe>
		     {
			Display_Keys_Map = KEY_MIN_EVENT;
 8a0:	80 93 b1 01 	sts	0x01B1, r24	; 0x8001b1 <Display_Keys_Map>
			 }
		leitura = Hal__ReadKey(KEY_1);
 8a4:	81 e0       	ldi	r24, 0x01	; 1
 8a6:	0e 94 b3 02 	call	0x566	; 0x566 <Hal__ReadKey>
		if(leitura == TRUE)
 8aa:	81 30       	cpi	r24, 0x01	; 1
 8ac:	19 f4       	brne	.+6      	; 0x8b4 <ReadDisplayKeys+0x1e>
		    {
			Display_Keys_Map = KEY_MED_EVENT;
 8ae:	82 e0       	ldi	r24, 0x02	; 2
 8b0:	80 93 b1 01 	sts	0x01B1, r24	; 0x8001b1 <Display_Keys_Map>
			}
		leitura = Hal__ReadKey(KEY_2);
 8b4:	82 e0       	ldi	r24, 0x02	; 2
 8b6:	0e 94 b3 02 	call	0x566	; 0x566 <Hal__ReadKey>
		if(leitura == TRUE)
 8ba:	81 30       	cpi	r24, 0x01	; 1
 8bc:	19 f4       	brne	.+6      	; 0x8c4 <ReadDisplayKeys+0x2e>
		    {
			Display_Keys_Map =  KEY_MAX_EVENT;
 8be:	83 e0       	ldi	r24, 0x03	; 3
 8c0:	80 93 b1 01 	sts	0x01B1, r24	; 0x8001b1 <Display_Keys_Map>
			}
		leitura = Hal__ReadKey(KEY_3);
 8c4:	83 e0       	ldi	r24, 0x03	; 3
 8c6:	0e 94 b3 02 	call	0x566	; 0x566 <Hal__ReadKey>
		if(leitura == TRUE)
 8ca:	81 30       	cpi	r24, 0x01	; 1
 8cc:	11 f4       	brne	.+4      	; 0x8d2 <ReadDisplayKeys+0x3c>
			{
			Display_Keys_Map =  KEY_OFF_EVENT; 
 8ce:	10 92 b1 01 	sts	0x01B1, r1	; 0x8001b1 <Display_Keys_Map>
 8d2:	08 95       	ret

000008d4 <Display__GetEvent>:


KEY_EVENT_TYPE Display__GetEvent(void)
{
	KEY_EVENT_TYPE event;
	ReadDisplayKeys();    // Lê as chaves e coloca valor na variável global Display_Keys_Map
 8d4:	0e 94 4b 04 	call	0x896	; 0x896 <ReadDisplayKeys>
	event = Display_Keys_Map;
	return (event);
	
}
 8d8:	80 91 b1 01 	lds	r24, 0x01B1	; 0x8001b1 <Display_Keys_Map>
 8dc:	08 95       	ret

000008de <UpdateDisplaySevenSeg>:
 */
void UpdateDisplaySevenSeg(void)
{
char i;
char *p_digito;
switch(Oven_Display_State)
 8de:	80 91 b2 01 	lds	r24, 0x01B2	; 0x8001b2 <Oven_Display_State>
 8e2:	81 30       	cpi	r24, 0x01	; 1
 8e4:	e1 f0       	breq	.+56     	; 0x91e <__stack+0x1f>
 8e6:	30 f0       	brcs	.+12     	; 0x8f4 <UpdateDisplaySevenSeg+0x16>
 8e8:	82 30       	cpi	r24, 0x02	; 2
 8ea:	71 f1       	breq	.+92     	; 0x948 <__stack+0x49>
 8ec:	83 30       	cpi	r24, 0x03	; 3
 8ee:	09 f4       	brne	.+2      	; 0x8f2 <UpdateDisplaySevenSeg+0x14>
 8f0:	40 c0       	rjmp	.+128    	; 0x972 <__stack+0x73>
 8f2:	08 95       	ret
	{
	case OVEN_OFF:
		{
		p_digito = &ZERADO_DIGITO[0];
		for (i = 0; i< NUM_OF_SEG; i++, p_digito++)
		Hal__WriteValtoSegment(i, p_digito);
 8f4:	62 e2       	ldi	r22, 0x22	; 34
 8f6:	71 e0       	ldi	r23, 0x01	; 1
 8f8:	80 e0       	ldi	r24, 0x00	; 0
 8fa:	0e 94 c6 02 	call	0x58c	; 0x58c <Hal__WriteValtoSegment>
 8fe:	63 e2       	ldi	r22, 0x23	; 35
 900:	71 e0       	ldi	r23, 0x01	; 1
 902:	81 e0       	ldi	r24, 0x01	; 1
 904:	0e 94 c6 02 	call	0x58c	; 0x58c <Hal__WriteValtoSegment>
 908:	64 e2       	ldi	r22, 0x24	; 36
 90a:	71 e0       	ldi	r23, 0x01	; 1
 90c:	82 e0       	ldi	r24, 0x02	; 2
 90e:	0e 94 c6 02 	call	0x58c	; 0x58c <Hal__WriteValtoSegment>
 912:	65 e2       	ldi	r22, 0x25	; 37
 914:	71 e0       	ldi	r23, 0x01	; 1
 916:	83 e0       	ldi	r24, 0x03	; 3
 918:	0e 94 c6 02 	call	0x58c	; 0x58c <Hal__WriteValtoSegment>
 91c:	08 95       	ret
		//Hal__WriteValtoSegment(1, 0xC0);
		//Hal__WriteValtoSegment(2, 0x80);
		//Hal__WriteValtoSegment(3, 0xC0);
		p_digito = &MINIMO_DIGITO[0];
		for (i = 0; i< NUM_OF_SEG; i++, p_digito++)
		Hal__WriteValtoSegment(i, p_digito);
 91e:	6e e1       	ldi	r22, 0x1E	; 30
 920:	71 e0       	ldi	r23, 0x01	; 1
 922:	80 e0       	ldi	r24, 0x00	; 0
 924:	0e 94 c6 02 	call	0x58c	; 0x58c <Hal__WriteValtoSegment>
 928:	6f e1       	ldi	r22, 0x1F	; 31
 92a:	71 e0       	ldi	r23, 0x01	; 1
 92c:	81 e0       	ldi	r24, 0x01	; 1
 92e:	0e 94 c6 02 	call	0x58c	; 0x58c <Hal__WriteValtoSegment>
 932:	60 e2       	ldi	r22, 0x20	; 32
 934:	71 e0       	ldi	r23, 0x01	; 1
 936:	82 e0       	ldi	r24, 0x02	; 2
 938:	0e 94 c6 02 	call	0x58c	; 0x58c <Hal__WriteValtoSegment>
 93c:	61 e2       	ldi	r22, 0x21	; 33
 93e:	71 e0       	ldi	r23, 0x01	; 1
 940:	83 e0       	ldi	r24, 0x03	; 3
 942:	0e 94 c6 02 	call	0x58c	; 0x58c <Hal__WriteValtoSegment>
 946:	08 95       	ret
		//Hal__WriteValtoSegment(1, 0xA4);
		//Hal__WriteValtoSegment(2, 0x82);
		//Hal__WriteValtoSegment(3, 0xC0);
		p_digito = &MEDIO_DIGITO[0];
		for (i = 0; i< NUM_OF_SEG; i++, p_digito++)
		Hal__WriteValtoSegment(i, p_digito);
 948:	6a e1       	ldi	r22, 0x1A	; 26
 94a:	71 e0       	ldi	r23, 0x01	; 1
 94c:	80 e0       	ldi	r24, 0x00	; 0
 94e:	0e 94 c6 02 	call	0x58c	; 0x58c <Hal__WriteValtoSegment>
 952:	6b e1       	ldi	r22, 0x1B	; 27
 954:	71 e0       	ldi	r23, 0x01	; 1
 956:	81 e0       	ldi	r24, 0x01	; 1
 958:	0e 94 c6 02 	call	0x58c	; 0x58c <Hal__WriteValtoSegment>
 95c:	6c e1       	ldi	r22, 0x1C	; 28
 95e:	71 e0       	ldi	r23, 0x01	; 1
 960:	82 e0       	ldi	r24, 0x02	; 2
 962:	0e 94 c6 02 	call	0x58c	; 0x58c <Hal__WriteValtoSegment>
 966:	6d e1       	ldi	r22, 0x1D	; 29
 968:	71 e0       	ldi	r23, 0x01	; 1
 96a:	83 e0       	ldi	r24, 0x03	; 3
 96c:	0e 94 c6 02 	call	0x58c	; 0x58c <Hal__WriteValtoSegment>
 970:	08 95       	ret
		//Hal__WriteValtoSegment(1, 0xB0);
		//Hal__WriteValtoSegment(2, 0xA4);
		//Hal__WriteValtoSegment(3, 0xC0);
		p_digito = &MAXIMO_DIGITO;   // ou p_digito = &MAXIMO_DIGITO[0];
		for (i = 0; i< NUM_OF_SEG; i++, p_digito++)
		Hal__WriteValtoSegment(i, p_digito);
 972:	66 e1       	ldi	r22, 0x16	; 22
 974:	71 e0       	ldi	r23, 0x01	; 1
 976:	80 e0       	ldi	r24, 0x00	; 0
 978:	0e 94 c6 02 	call	0x58c	; 0x58c <Hal__WriteValtoSegment>
 97c:	67 e1       	ldi	r22, 0x17	; 23
 97e:	71 e0       	ldi	r23, 0x01	; 1
 980:	81 e0       	ldi	r24, 0x01	; 1
 982:	0e 94 c6 02 	call	0x58c	; 0x58c <Hal__WriteValtoSegment>
 986:	68 e1       	ldi	r22, 0x18	; 24
 988:	71 e0       	ldi	r23, 0x01	; 1
 98a:	82 e0       	ldi	r24, 0x02	; 2
 98c:	0e 94 c6 02 	call	0x58c	; 0x58c <Hal__WriteValtoSegment>
 990:	69 e1       	ldi	r22, 0x19	; 25
 992:	71 e0       	ldi	r23, 0x01	; 1
 994:	83 e0       	ldi	r24, 0x03	; 3
 996:	0e 94 c6 02 	call	0x58c	; 0x58c <Hal__WriteValtoSegment>
 99a:	08 95       	ret

0000099c <Display__Handler>:
/**
 *  
 */
void Display__Handler(void)
{
ReadDisplayKeys();
 99c:	0e 94 4b 04 	call	0x896	; 0x896 <ReadDisplayKeys>
	
#if (LED_DISPLAY == ENABLED)	
	UpdateDisplayLeds();
 9a0:	0e 94 16 04 	call	0x82c	; 0x82c <UpdateDisplayLeds>
#endif	

#if (SEVEN_SEG_DISPLAY == ENABLED)
     UpdateDisplaySevenSeg();
 9a4:	0e 94 6f 04 	call	0x8de	; 0x8de <UpdateDisplaySevenSeg>
 9a8:	08 95       	ret

000009aa <TempSensor__Initialize>:
{
	TEMP_SENSOR_TYPE sensor_id;

	for (sensor_id = 0; sensor_id < NUM_OF_TEMP_SENSOR; sensor_id++) 
	{
		Temperature[sensor_id] = 0;
 9aa:	e3 eb       	ldi	r30, 0xB3	; 179
 9ac:	f1 e0       	ldi	r31, 0x01	; 1
 9ae:	11 82       	std	Z+1, r1	; 0x01
 9b0:	10 82       	st	Z, r1
 9b2:	13 82       	std	Z+3, r1	; 0x03
 9b4:	12 82       	std	Z+2, r1	; 0x02
 9b6:	08 95       	ret

000009b8 <TempSensor__ConversionHandler>:
//  Esta função faz a conversão dos valores lidos nos sensores escolhidos
//  e são armazenados em Temperature[].
 
//---------------------------------------------------------------------------------------------------------------------
void TempSensor__ConversionHandler(void)
{
 9b8:	08 95       	ret

000009ba <TempSensor__GetCelsius>:
	
}
//---------------------------------------------------------------------------------------------------------------------
unsigned short int TempSensor__GetCelsius(TEMP_SENSOR_TYPE sensor_id)
{
	if (sensor_id < NUM_OF_TEMP_SENSOR)
 9ba:	82 30       	cpi	r24, 0x02	; 2
 9bc:	48 f4       	brcc	.+18     	; 0x9d0 <TempSensor__GetCelsius+0x16>
	{
		return Temperature[sensor_id];
 9be:	e8 2f       	mov	r30, r24
 9c0:	f0 e0       	ldi	r31, 0x00	; 0
 9c2:	ee 0f       	add	r30, r30
 9c4:	ff 1f       	adc	r31, r31
 9c6:	ed 54       	subi	r30, 0x4D	; 77
 9c8:	fe 4f       	sbci	r31, 0xFE	; 254
 9ca:	80 81       	ld	r24, Z
 9cc:	91 81       	ldd	r25, Z+1	; 0x01
 9ce:	08 95       	ret
	}
	else
	{
		return 0;
 9d0:	80 e0       	ldi	r24, 0x00	; 0
 9d2:	90 e0       	ldi	r25, 0x00	; 0
	}
	
}
 9d4:	08 95       	ret

000009d6 <_exit>:
 9d6:	f8 94       	cli

000009d8 <__stop_program>:
 9d8:	ff cf       	rjmp	.-2      	; 0x9d8 <__stop_program>
